
os.elf:     file format elf32-littlearm


Disassembly of section .text:

80100000 <_start>:
80100000:	ea000006 	b	80100020 <start>
80100004:	00000000 	andeq	r0, r0, r0
80100008:	ea00033c 	b	80100d00 <_software_interrupt>
	...
80100014:	ea00033e 	b	80100d14 <_data_abort>
	...

80100020 <start>:
80100020:	eb00000c 	bl	80100058 <_set_vertors>
80100024:	e59fd038 	ldr	sp, [pc, #56]	; 80100064 <_set_vertors+0xc>
80100028:	fb00002c 	blx	801000e2 <init_page>
8010002c:	eb000001 	bl	80100038 <_cmode>
80100030:	fa000022 	blx	801000c0 <main>

80100034 <halt>:
80100034:	eafffffe 	b	80100034 <halt>

80100038 <_cmode>:
80100038:	e3a00102 	mov	r0, #-2147483648	; 0x80000000
8010003c:	ee020f10 	mcr	15, 0, r0, cr2, cr0, {0}
80100040:	e59f0020 	ldr	r0, [pc, #32]	; 80100068 <_set_vertors+0x10>
80100044:	ee030f10 	mcr	15, 0, r0, cr3, cr0, {0}
80100048:	ee110f10 	mrc	15, 0, r0, cr1, cr0, {0}
8010004c:	e3800001 	orr	r0, r0, #1
80100050:	ee010f10 	mcr	15, 0, r0, cr1, cr0, {0}
80100054:	e1a0f00e 	mov	pc, lr

80100058 <_set_vertors>:
80100058:	e59f000c 	ldr	r0, [pc, #12]	; 8010006c <_set_vertors+0x14>
8010005c:	ee0c0f10 	mcr	15, 0, r0, cr12, cr0, {0}
80100060:	e1a0f00e 	mov	pc, lr
80100064:	80400000 	subhi	r0, r0, r0
80100068:	55555555 	ldrbpl	r5, [r5, #-1365]	; 0xfffffaab
8010006c:	80100000 	andshi	r0, r0, r0

80100070 <change_page_addr>:
80100070:	b480      	push	{r7}
80100072:	b085      	sub	sp, #20
80100074:	af00      	add	r7, sp, #0
80100076:	6078      	str	r0, [r7, #4]
80100078:	687b      	ldr	r3, [r7, #4]
8010007a:	68fa      	ldr	r2, [r7, #12]
8010007c:	f04f 0200 	mov.w	r2, #0
80100080:	ee07 2f15 	mcr	15, 0, r2, cr7, cr5, {0}
80100084:	ee07 2fd5 	mcr	15, 0, r2, cr7, cr5, {6}
80100088:	ee08 2f17 	mcr	15, 0, r2, cr8, cr7, {0}
8010008c:	f3bf 8f6f 	isb	sy
80100090:	ee02 3f10 	mcr	15, 0, r3, cr2, cr0, {0}
80100094:	bf00      	nop
80100096:	3714      	adds	r7, #20
80100098:	46bd      	mov	sp, r7
8010009a:	f85d 7b04 	ldr.w	r7, [sp], #4
8010009e:	4770      	bx	lr

801000a0 <enter_trap>:
801000a0:	b480      	push	{r7}
801000a2:	b083      	sub	sp, #12
801000a4:	af00      	add	r7, sp, #0
801000a6:	6078      	str	r0, [r7, #4]
801000a8:	687b      	ldr	r3, [r7, #4]
801000aa:	b500      	push	{lr}
801000ac:	4618      	mov	r0, r3
801000ae:	df00      	svc	0
801000b0:	f85d eb04 	ldr.w	lr, [sp], #4
801000b4:	bf00      	nop
801000b6:	370c      	adds	r7, #12
801000b8:	46bd      	mov	sp, r7
801000ba:	f85d 7b04 	ldr.w	r7, [sp], #4
801000be:	4770      	bx	lr

801000c0 <main>:
801000c0:	b580      	push	{r7, lr}
801000c2:	af00      	add	r7, sp, #0
801000c4:	f000 fb43 	bl	8010074e <Uart_Init>
801000c8:	f04f 4104 	mov.w	r1, #2214592512	; 0x84000000
801000cc:	f240 0000 	movw	r0, #0
801000d0:	f2c8 0040 	movt	r0, #32832	; 0x8040
801000d4:	f000 fc06 	bl	801008e4 <kinit1>
801000d8:	f000 fd61 	bl	80100b9e <kvmalloc>
801000dc:	2300      	movs	r3, #0
801000de:	4618      	mov	r0, r3
801000e0:	bd80      	pop	{r7, pc}

801000e2 <init_page>:
801000e2:	b580      	push	{r7, lr}
801000e4:	b082      	sub	sp, #8
801000e6:	af00      	add	r7, sp, #0
801000e8:	f04f 4300 	mov.w	r3, #2147483648	; 0x80000000
801000ec:	603b      	str	r3, [r7, #0]
801000ee:	2300      	movs	r3, #0
801000f0:	607b      	str	r3, [r7, #4]
801000f2:	e00a      	b.n	8010010a <init_page+0x28>
801000f4:	f640 4302 	movw	r3, #3074	; 0xc02
801000f8:	687a      	ldr	r2, [r7, #4]
801000fa:	6879      	ldr	r1, [r7, #4]
801000fc:	6838      	ldr	r0, [r7, #0]
801000fe:	f000 f815 	bl	8010012c <creat_entry>
80100102:	687b      	ldr	r3, [r7, #4]
80100104:	f503 1380 	add.w	r3, r3, #1048576	; 0x100000
80100108:	607b      	str	r3, [r7, #4]
8010010a:	687b      	ldr	r3, [r7, #4]
8010010c:	f513 1f80 	cmn.w	r3, #1048576	; 0x100000
80100110:	d3f0      	bcc.n	801000f4 <init_page+0x12>
80100112:	f640 4302 	movw	r3, #3074	; 0xc02
80100116:	f04f 7200 	mov.w	r2, #33554432	; 0x2000000
8010011a:	f04f 4100 	mov.w	r1, #2147483648	; 0x80000000
8010011e:	6838      	ldr	r0, [r7, #0]
80100120:	f000 f804 	bl	8010012c <creat_entry>
80100124:	bf00      	nop
80100126:	3708      	adds	r7, #8
80100128:	46bd      	mov	sp, r7
8010012a:	bd80      	pop	{r7, pc}

8010012c <creat_entry>:
8010012c:	b480      	push	{r7}
8010012e:	b087      	sub	sp, #28
80100130:	af00      	add	r7, sp, #0
80100132:	60f8      	str	r0, [r7, #12]
80100134:	60b9      	str	r1, [r7, #8]
80100136:	607a      	str	r2, [r7, #4]
80100138:	603b      	str	r3, [r7, #0]
8010013a:	68bb      	ldr	r3, [r7, #8]
8010013c:	0d1b      	lsrs	r3, r3, #20
8010013e:	617b      	str	r3, [r7, #20]
80100140:	697b      	ldr	r3, [r7, #20]
80100142:	009b      	lsls	r3, r3, #2
80100144:	68fa      	ldr	r2, [r7, #12]
80100146:	441a      	add	r2, r3
80100148:	687b      	ldr	r3, [r7, #4]
8010014a:	0d1b      	lsrs	r3, r3, #20
8010014c:	051b      	lsls	r3, r3, #20
8010014e:	6839      	ldr	r1, [r7, #0]
80100150:	430b      	orrs	r3, r1
80100152:	6013      	str	r3, [r2, #0]
80100154:	bf00      	nop
80100156:	371c      	adds	r7, #28
80100158:	46bd      	mov	sp, r7
8010015a:	f85d 7b04 	ldr.w	r7, [sp], #4
8010015e:	4770      	bx	lr

80100160 <outc>:
80100160:	b580      	push	{r7, lr}
80100162:	b082      	sub	sp, #8
80100164:	af00      	add	r7, sp, #0
80100166:	6078      	str	r0, [r7, #4]
80100168:	6878      	ldr	r0, [r7, #4]
8010016a:	f000 fb6b 	bl	80100844 <PutChar>
8010016e:	2300      	movs	r3, #0
80100170:	4618      	mov	r0, r3
80100172:	3708      	adds	r7, #8
80100174:	46bd      	mov	sp, r7
80100176:	bd80      	pop	{r7, pc}

80100178 <outs>:
80100178:	b580      	push	{r7, lr}
8010017a:	b082      	sub	sp, #8
8010017c:	af00      	add	r7, sp, #0
8010017e:	6078      	str	r0, [r7, #4]
80100180:	e006      	b.n	80100190 <outs+0x18>
80100182:	687b      	ldr	r3, [r7, #4]
80100184:	1c5a      	adds	r2, r3, #1
80100186:	607a      	str	r2, [r7, #4]
80100188:	781b      	ldrb	r3, [r3, #0]
8010018a:	4618      	mov	r0, r3
8010018c:	f000 fb5a 	bl	80100844 <PutChar>
80100190:	687b      	ldr	r3, [r7, #4]
80100192:	781b      	ldrb	r3, [r3, #0]
80100194:	2b00      	cmp	r3, #0
80100196:	d1f4      	bne.n	80100182 <outs+0xa>
80100198:	2300      	movs	r3, #0
8010019a:	4618      	mov	r0, r3
8010019c:	3708      	adds	r7, #8
8010019e:	46bd      	mov	sp, r7
801001a0:	bd80      	pop	{r7, pc}

801001a2 <out_num>:
801001a2:	b580      	push	{r7, lr}
801001a4:	b098      	sub	sp, #96	; 0x60
801001a6:	af00      	add	r7, sp, #0
801001a8:	60f8      	str	r0, [r7, #12]
801001aa:	60b9      	str	r1, [r7, #8]
801001ac:	603b      	str	r3, [r7, #0]
801001ae:	4613      	mov	r3, r2
801001b0:	71fb      	strb	r3, [r7, #7]
801001b2:	2300      	movs	r3, #0
801001b4:	65fb      	str	r3, [r7, #92]	; 0x5c
801001b6:	f107 0310 	add.w	r3, r7, #16
801001ba:	3340      	adds	r3, #64	; 0x40
801001bc:	65bb      	str	r3, [r7, #88]	; 0x58
801001be:	2300      	movs	r3, #0
801001c0:	657b      	str	r3, [r7, #84]	; 0x54
801001c2:	2300      	movs	r3, #0
801001c4:	653b      	str	r3, [r7, #80]	; 0x50
801001c6:	6dbb      	ldr	r3, [r7, #88]	; 0x58
801001c8:	3b01      	subs	r3, #1
801001ca:	65bb      	str	r3, [r7, #88]	; 0x58
801001cc:	6dbb      	ldr	r3, [r7, #88]	; 0x58
801001ce:	2200      	movs	r2, #0
801001d0:	701a      	strb	r2, [r3, #0]
801001d2:	68fb      	ldr	r3, [r7, #12]
801001d4:	2b00      	cmp	r3, #0
801001d6:	da03      	bge.n	801001e0 <out_num+0x3e>
801001d8:	68fb      	ldr	r3, [r7, #12]
801001da:	425b      	negs	r3, r3
801001dc:	65fb      	str	r3, [r7, #92]	; 0x5c
801001de:	e001      	b.n	801001e4 <out_num+0x42>
801001e0:	68fb      	ldr	r3, [r7, #12]
801001e2:	65fb      	str	r3, [r7, #92]	; 0x5c
801001e4:	6dbb      	ldr	r3, [r7, #88]	; 0x58
801001e6:	3b01      	subs	r3, #1
801001e8:	65bb      	str	r3, [r7, #88]	; 0x58
801001ea:	68ba      	ldr	r2, [r7, #8]
801001ec:	6dfb      	ldr	r3, [r7, #92]	; 0x5c
801001ee:	4611      	mov	r1, r2
801001f0:	4618      	mov	r0, r3
801001f2:	f000 fec7 	bl	80100f84 <__aeabi_uidivmod>
801001f6:	460b      	mov	r3, r1
801001f8:	461a      	mov	r2, r3
801001fa:	f241 1338 	movw	r3, #4408	; 0x1138
801001fe:	f2c8 0310 	movt	r3, #32784	; 0x8010
80100202:	5c9a      	ldrb	r2, [r3, r2]
80100204:	6dbb      	ldr	r3, [r7, #88]	; 0x58
80100206:	701a      	strb	r2, [r3, #0]
80100208:	6d7b      	ldr	r3, [r7, #84]	; 0x54
8010020a:	3301      	adds	r3, #1
8010020c:	657b      	str	r3, [r7, #84]	; 0x54
8010020e:	68bb      	ldr	r3, [r7, #8]
80100210:	4619      	mov	r1, r3
80100212:	6df8      	ldr	r0, [r7, #92]	; 0x5c
80100214:	f000 fd88 	bl	80100d28 <__aeabi_uidiv>
80100218:	4603      	mov	r3, r0
8010021a:	65fb      	str	r3, [r7, #92]	; 0x5c
8010021c:	6dfb      	ldr	r3, [r7, #92]	; 0x5c
8010021e:	2b00      	cmp	r3, #0
80100220:	d1e0      	bne.n	801001e4 <out_num+0x42>
80100222:	683b      	ldr	r3, [r7, #0]
80100224:	2b00      	cmp	r3, #0
80100226:	d014      	beq.n	80100252 <out_num+0xb0>
80100228:	6d7a      	ldr	r2, [r7, #84]	; 0x54
8010022a:	683b      	ldr	r3, [r7, #0]
8010022c:	429a      	cmp	r2, r3
8010022e:	da10      	bge.n	80100252 <out_num+0xb0>
80100230:	683a      	ldr	r2, [r7, #0]
80100232:	6d7b      	ldr	r3, [r7, #84]	; 0x54
80100234:	1ad3      	subs	r3, r2, r3
80100236:	653b      	str	r3, [r7, #80]	; 0x50
80100238:	e008      	b.n	8010024c <out_num+0xaa>
8010023a:	6dbb      	ldr	r3, [r7, #88]	; 0x58
8010023c:	3b01      	subs	r3, #1
8010023e:	65bb      	str	r3, [r7, #88]	; 0x58
80100240:	6dbb      	ldr	r3, [r7, #88]	; 0x58
80100242:	79fa      	ldrb	r2, [r7, #7]
80100244:	701a      	strb	r2, [r3, #0]
80100246:	6d3b      	ldr	r3, [r7, #80]	; 0x50
80100248:	3b01      	subs	r3, #1
8010024a:	653b      	str	r3, [r7, #80]	; 0x50
8010024c:	6d3b      	ldr	r3, [r7, #80]	; 0x50
8010024e:	2b00      	cmp	r3, #0
80100250:	d1f3      	bne.n	8010023a <out_num+0x98>
80100252:	68fb      	ldr	r3, [r7, #12]
80100254:	2b00      	cmp	r3, #0
80100256:	da05      	bge.n	80100264 <out_num+0xc2>
80100258:	6dbb      	ldr	r3, [r7, #88]	; 0x58
8010025a:	3b01      	subs	r3, #1
8010025c:	65bb      	str	r3, [r7, #88]	; 0x58
8010025e:	6dbb      	ldr	r3, [r7, #88]	; 0x58
80100260:	222d      	movs	r2, #45	; 0x2d
80100262:	701a      	strb	r2, [r3, #0]
80100264:	6db8      	ldr	r0, [r7, #88]	; 0x58
80100266:	f7ff ff87 	bl	80100178 <outs>
8010026a:	4603      	mov	r3, r0
8010026c:	4618      	mov	r0, r3
8010026e:	3760      	adds	r7, #96	; 0x60
80100270:	46bd      	mov	sp, r7
80100272:	bd80      	pop	{r7, pc}

80100274 <my_vprintf>:
80100274:	b580      	push	{r7, lr}
80100276:	b084      	sub	sp, #16
80100278:	af00      	add	r7, sp, #0
8010027a:	6078      	str	r0, [r7, #4]
8010027c:	6039      	str	r1, [r7, #0]
8010027e:	2320      	movs	r3, #32
80100280:	73fb      	strb	r3, [r7, #15]
80100282:	2300      	movs	r3, #0
80100284:	60bb      	str	r3, [r7, #8]
80100286:	e0b5      	b.n	801003f4 <my_vprintf+0x180>
80100288:	687b      	ldr	r3, [r7, #4]
8010028a:	781b      	ldrb	r3, [r3, #0]
8010028c:	2b25      	cmp	r3, #37	; 0x25
8010028e:	d005      	beq.n	8010029c <my_vprintf+0x28>
80100290:	687b      	ldr	r3, [r7, #4]
80100292:	781b      	ldrb	r3, [r3, #0]
80100294:	4618      	mov	r0, r3
80100296:	f7ff ff63 	bl	80100160 <outc>
8010029a:	e0a8      	b.n	801003ee <my_vprintf+0x17a>
8010029c:	2320      	movs	r3, #32
8010029e:	73fb      	strb	r3, [r7, #15]
801002a0:	2300      	movs	r3, #0
801002a2:	60bb      	str	r3, [r7, #8]
801002a4:	687b      	ldr	r3, [r7, #4]
801002a6:	3301      	adds	r3, #1
801002a8:	607b      	str	r3, [r7, #4]
801002aa:	687b      	ldr	r3, [r7, #4]
801002ac:	781b      	ldrb	r3, [r3, #0]
801002ae:	2b30      	cmp	r3, #48	; 0x30
801002b0:	d114      	bne.n	801002dc <my_vprintf+0x68>
801002b2:	2330      	movs	r3, #48	; 0x30
801002b4:	73fb      	strb	r3, [r7, #15]
801002b6:	687b      	ldr	r3, [r7, #4]
801002b8:	3301      	adds	r3, #1
801002ba:	607b      	str	r3, [r7, #4]
801002bc:	e00e      	b.n	801002dc <my_vprintf+0x68>
801002be:	68ba      	ldr	r2, [r7, #8]
801002c0:	4613      	mov	r3, r2
801002c2:	009b      	lsls	r3, r3, #2
801002c4:	4413      	add	r3, r2
801002c6:	005b      	lsls	r3, r3, #1
801002c8:	60bb      	str	r3, [r7, #8]
801002ca:	687b      	ldr	r3, [r7, #4]
801002cc:	781b      	ldrb	r3, [r3, #0]
801002ce:	3b30      	subs	r3, #48	; 0x30
801002d0:	68ba      	ldr	r2, [r7, #8]
801002d2:	4413      	add	r3, r2
801002d4:	60bb      	str	r3, [r7, #8]
801002d6:	687b      	ldr	r3, [r7, #4]
801002d8:	3301      	adds	r3, #1
801002da:	607b      	str	r3, [r7, #4]
801002dc:	687b      	ldr	r3, [r7, #4]
801002de:	781b      	ldrb	r3, [r3, #0]
801002e0:	2b2f      	cmp	r3, #47	; 0x2f
801002e2:	d903      	bls.n	801002ec <my_vprintf+0x78>
801002e4:	687b      	ldr	r3, [r7, #4]
801002e6:	781b      	ldrb	r3, [r3, #0]
801002e8:	2b39      	cmp	r3, #57	; 0x39
801002ea:	d9e8      	bls.n	801002be <my_vprintf+0x4a>
801002ec:	687b      	ldr	r3, [r7, #4]
801002ee:	781b      	ldrb	r3, [r3, #0]
801002f0:	3b63      	subs	r3, #99	; 0x63
801002f2:	2b15      	cmp	r3, #21
801002f4:	d875      	bhi.n	801003e2 <my_vprintf+0x16e>
801002f6:	a201      	add	r2, pc, #4	; (adr r2, 801002fc <my_vprintf+0x88>)
801002f8:	f852 f023 	ldr.w	pc, [r2, r3, lsl #2]
801002fc:	801003bb 			; <UNDEFINED> instruction: 0x801003bb
80100300:	80100355 	andshi	r0, r0, r5, asr r3
80100304:	801003e3 	andshi	r0, r0, r3, ror #7
80100308:	801003e3 	andshi	r0, r0, r3, ror #7
8010030c:	801003e3 	andshi	r0, r0, r3, ror #7
80100310:	801003e3 	andshi	r0, r0, r3, ror #7
80100314:	801003e3 	andshi	r0, r0, r3, ror #7
80100318:	801003e3 	andshi	r0, r0, r3, ror #7
8010031c:	801003e3 	andshi	r0, r0, r3, ror #7
80100320:	801003e3 	andshi	r0, r0, r3, ror #7
80100324:	801003e3 	andshi	r0, r0, r3, ror #7
80100328:	801003e3 	andshi	r0, r0, r3, ror #7
8010032c:	8010036d 	andshi	r0, r0, sp, ror #6
80100330:	801003e3 	andshi	r0, r0, r3, ror #7
80100334:	801003e3 	andshi	r0, r0, r3, ror #7
80100338:	801003e3 	andshi	r0, r0, r3, ror #7
8010033c:	801003cf 	andshi	r0, r0, pc, asr #7
80100340:	801003e3 	andshi	r0, r0, r3, ror #7
80100344:	80100387 	andshi	r0, r0, r7, lsl #7
80100348:	801003e3 	andshi	r0, r0, r3, ror #7
8010034c:	801003e3 	andshi	r0, r0, r3, ror #7
80100350:	801003a1 	andshi	r0, r0, r1, lsr #7
80100354:	683b      	ldr	r3, [r7, #0]
80100356:	3304      	adds	r3, #4
80100358:	603b      	str	r3, [r7, #0]
8010035a:	683b      	ldr	r3, [r7, #0]
8010035c:	3b04      	subs	r3, #4
8010035e:	6818      	ldr	r0, [r3, #0]
80100360:	7bfa      	ldrb	r2, [r7, #15]
80100362:	68bb      	ldr	r3, [r7, #8]
80100364:	210a      	movs	r1, #10
80100366:	f7ff ff1c 	bl	801001a2 <out_num>
8010036a:	e040      	b.n	801003ee <my_vprintf+0x17a>
8010036c:	683b      	ldr	r3, [r7, #0]
8010036e:	3304      	adds	r3, #4
80100370:	603b      	str	r3, [r7, #0]
80100372:	683b      	ldr	r3, [r7, #0]
80100374:	3b04      	subs	r3, #4
80100376:	681b      	ldr	r3, [r3, #0]
80100378:	4618      	mov	r0, r3
8010037a:	7bfa      	ldrb	r2, [r7, #15]
8010037c:	68bb      	ldr	r3, [r7, #8]
8010037e:	2108      	movs	r1, #8
80100380:	f7ff ff0f 	bl	801001a2 <out_num>
80100384:	e033      	b.n	801003ee <my_vprintf+0x17a>
80100386:	683b      	ldr	r3, [r7, #0]
80100388:	3304      	adds	r3, #4
8010038a:	603b      	str	r3, [r7, #0]
8010038c:	683b      	ldr	r3, [r7, #0]
8010038e:	3b04      	subs	r3, #4
80100390:	681b      	ldr	r3, [r3, #0]
80100392:	4618      	mov	r0, r3
80100394:	7bfa      	ldrb	r2, [r7, #15]
80100396:	68bb      	ldr	r3, [r7, #8]
80100398:	210a      	movs	r1, #10
8010039a:	f7ff ff02 	bl	801001a2 <out_num>
8010039e:	e026      	b.n	801003ee <my_vprintf+0x17a>
801003a0:	683b      	ldr	r3, [r7, #0]
801003a2:	3304      	adds	r3, #4
801003a4:	603b      	str	r3, [r7, #0]
801003a6:	683b      	ldr	r3, [r7, #0]
801003a8:	3b04      	subs	r3, #4
801003aa:	681b      	ldr	r3, [r3, #0]
801003ac:	4618      	mov	r0, r3
801003ae:	7bfa      	ldrb	r2, [r7, #15]
801003b0:	68bb      	ldr	r3, [r7, #8]
801003b2:	2110      	movs	r1, #16
801003b4:	f7ff fef5 	bl	801001a2 <out_num>
801003b8:	e019      	b.n	801003ee <my_vprintf+0x17a>
801003ba:	683b      	ldr	r3, [r7, #0]
801003bc:	3304      	adds	r3, #4
801003be:	603b      	str	r3, [r7, #0]
801003c0:	683b      	ldr	r3, [r7, #0]
801003c2:	3b04      	subs	r3, #4
801003c4:	681b      	ldr	r3, [r3, #0]
801003c6:	4618      	mov	r0, r3
801003c8:	f7ff feca 	bl	80100160 <outc>
801003cc:	e00f      	b.n	801003ee <my_vprintf+0x17a>
801003ce:	683b      	ldr	r3, [r7, #0]
801003d0:	3304      	adds	r3, #4
801003d2:	603b      	str	r3, [r7, #0]
801003d4:	683b      	ldr	r3, [r7, #0]
801003d6:	3b04      	subs	r3, #4
801003d8:	681b      	ldr	r3, [r3, #0]
801003da:	4618      	mov	r0, r3
801003dc:	f7ff fecc 	bl	80100178 <outs>
801003e0:	e005      	b.n	801003ee <my_vprintf+0x17a>
801003e2:	687b      	ldr	r3, [r7, #4]
801003e4:	781b      	ldrb	r3, [r3, #0]
801003e6:	4618      	mov	r0, r3
801003e8:	f7ff feba 	bl	80100160 <outc>
801003ec:	bf00      	nop
801003ee:	687b      	ldr	r3, [r7, #4]
801003f0:	3301      	adds	r3, #1
801003f2:	607b      	str	r3, [r7, #4]
801003f4:	687b      	ldr	r3, [r7, #4]
801003f6:	781b      	ldrb	r3, [r3, #0]
801003f8:	2b00      	cmp	r3, #0
801003fa:	f47f af45 	bne.w	80100288 <my_vprintf+0x14>
801003fe:	2300      	movs	r3, #0
80100400:	4618      	mov	r0, r3
80100402:	3710      	adds	r7, #16
80100404:	46bd      	mov	sp, r7
80100406:	bd80      	pop	{r7, pc}

80100408 <printf>:
80100408:	b40f      	push	{r0, r1, r2, r3}
8010040a:	b580      	push	{r7, lr}
8010040c:	b082      	sub	sp, #8
8010040e:	af00      	add	r7, sp, #0
80100410:	f107 0314 	add.w	r3, r7, #20
80100414:	607b      	str	r3, [r7, #4]
80100416:	693b      	ldr	r3, [r7, #16]
80100418:	6879      	ldr	r1, [r7, #4]
8010041a:	4618      	mov	r0, r3
8010041c:	f7ff ff2a 	bl	80100274 <my_vprintf>
80100420:	2300      	movs	r3, #0
80100422:	607b      	str	r3, [r7, #4]
80100424:	2300      	movs	r3, #0
80100426:	4618      	mov	r0, r3
80100428:	3708      	adds	r7, #8
8010042a:	46bd      	mov	sp, r7
8010042c:	e8bd 4080 	ldmia.w	sp!, {r7, lr}
80100430:	b004      	add	sp, #16
80100432:	4770      	bx	lr

80100434 <my_printf_test>:
80100434:	b580      	push	{r7, lr}
80100436:	af00      	add	r7, sp, #0
80100438:	f640 70ac 	movw	r0, #4012	; 0xfac
8010043c:	f2c8 0010 	movt	r0, #32784	; 0x8010
80100440:	f7ff ffe2 	bl	80100408 <printf>
80100444:	2261      	movs	r2, #97	; 0x61
80100446:	2141      	movs	r1, #65	; 0x41
80100448:	f640 70d8 	movw	r0, #4056	; 0xfd8
8010044c:	f2c8 0010 	movt	r0, #32784	; 0x8010
80100450:	f7ff ffda 	bl	80100408 <printf>
80100454:	f24e 2140 	movw	r1, #57920	; 0xe240
80100458:	f2c0 0101 	movt	r1, #1
8010045c:	f640 70f8 	movw	r0, #4088	; 0xff8
80100460:	f2c8 0010 	movt	r0, #32784	; 0x8010
80100464:	f7ff ffd0 	bl	80100408 <printf>
80100468:	f44f 51ee 	mov.w	r1, #7616	; 0x1dc0
8010046c:	f6cf 71fe 	movt	r1, #65534	; 0xfffe
80100470:	f640 70f8 	movw	r0, #4088	; 0xff8
80100474:	f2c8 0010 	movt	r0, #32784	; 0x8010
80100478:	f7ff ffc6 	bl	80100408 <printf>
8010047c:	f245 51aa 	movw	r1, #21930	; 0x55aa
80100480:	f2c5 51aa 	movt	r1, #21930	; 0x55aa
80100484:	f241 0014 	movw	r0, #4116	; 0x1014
80100488:	f2c8 0010 	movt	r0, #32784	; 0x8010
8010048c:	f7ff ffbc 	bl	80100408 <printf>
80100490:	f241 0130 	movw	r1, #4144	; 0x1030
80100494:	f2c8 0110 	movt	r1, #32784	; 0x8010
80100498:	f241 0040 	movw	r0, #4160	; 0x1040
8010049c:	f2c8 0010 	movt	r0, #32784	; 0x8010
801004a0:	f7ff ffb2 	bl	80100408 <printf>
801004a4:	f243 0139 	movw	r1, #12345	; 0x3039
801004a8:	f241 005c 	movw	r0, #4188	; 0x105c
801004ac:	f2c8 0010 	movt	r0, #32784	; 0x8010
801004b0:	f7ff ffaa 	bl	80100408 <printf>
801004b4:	f243 0139 	movw	r1, #12345	; 0x3039
801004b8:	f241 0068 	movw	r0, #4200	; 0x1068
801004bc:	f2c8 0010 	movt	r0, #32784	; 0x8010
801004c0:	f7ff ffa2 	bl	80100408 <printf>
801004c4:	f242 3145 	movw	r1, #9029	; 0x2345
801004c8:	f2c0 0101 	movt	r1, #1
801004cc:	f241 0074 	movw	r0, #4212	; 0x1074
801004d0:	f2c8 0010 	movt	r0, #32784	; 0x8010
801004d4:	f7ff ff98 	bl	80100408 <printf>
801004d8:	f242 3145 	movw	r1, #9029	; 0x2345
801004dc:	f2c0 0101 	movt	r1, #1
801004e0:	f241 0084 	movw	r0, #4228	; 0x1084
801004e4:	f2c8 0010 	movt	r0, #32784	; 0x8010
801004e8:	f7ff ff8e 	bl	80100408 <printf>
801004ec:	2101      	movs	r1, #1
801004ee:	f241 0090 	movw	r0, #4240	; 0x1090
801004f2:	f2c8 0010 	movt	r0, #32784	; 0x8010
801004f6:	f7ff ff87 	bl	80100408 <printf>
801004fa:	2101      	movs	r1, #1
801004fc:	f241 00a0 	movw	r0, #4256	; 0x10a0
80100500:	f2c8 0010 	movt	r0, #32784	; 0x8010
80100504:	f7ff ff80 	bl	80100408 <printf>
80100508:	2101      	movs	r1, #1
8010050a:	f241 00ac 	movw	r0, #4268	; 0x10ac
8010050e:	f2c8 0010 	movt	r0, #32784	; 0x8010
80100512:	f7ff ff79 	bl	80100408 <printf>
80100516:	2101      	movs	r1, #1
80100518:	f241 00b8 	movw	r0, #4280	; 0x10b8
8010051c:	f2c8 0010 	movt	r0, #32784	; 0x8010
80100520:	f7ff ff72 	bl	80100408 <printf>
80100524:	2300      	movs	r3, #0
80100526:	4618      	mov	r0, r3
80100528:	bd80      	pop	{r7, pc}
8010052a:	bf00      	nop

8010052c <__toupper>:
8010052c:	b480      	push	{r7}
8010052e:	b083      	sub	sp, #12
80100530:	af00      	add	r7, sp, #0
80100532:	4603      	mov	r3, r0
80100534:	71fb      	strb	r3, [r7, #7]
80100536:	79fa      	ldrb	r2, [r7, #7]
80100538:	f241 1348 	movw	r3, #4424	; 0x1148
8010053c:	f2c8 0310 	movt	r3, #32784	; 0x8010
80100540:	5c9b      	ldrb	r3, [r3, r2]
80100542:	f003 0302 	and.w	r3, r3, #2
80100546:	2b00      	cmp	r3, #0
80100548:	d002      	beq.n	80100550 <__toupper+0x24>
8010054a:	79fb      	ldrb	r3, [r7, #7]
8010054c:	3b20      	subs	r3, #32
8010054e:	71fb      	strb	r3, [r7, #7]
80100550:	79fb      	ldrb	r3, [r7, #7]
80100552:	4618      	mov	r0, r3
80100554:	370c      	adds	r7, #12
80100556:	46bd      	mov	sp, r7
80100558:	f85d 7b04 	ldr.w	r7, [sp], #4
8010055c:	4770      	bx	lr

8010055e <simple_strtoul>:
8010055e:	b580      	push	{r7, lr}
80100560:	b086      	sub	sp, #24
80100562:	af00      	add	r7, sp, #0
80100564:	60f8      	str	r0, [r7, #12]
80100566:	60b9      	str	r1, [r7, #8]
80100568:	607a      	str	r2, [r7, #4]
8010056a:	2300      	movs	r3, #0
8010056c:	617b      	str	r3, [r7, #20]
8010056e:	68fb      	ldr	r3, [r7, #12]
80100570:	781b      	ldrb	r3, [r3, #0]
80100572:	2b30      	cmp	r3, #48	; 0x30
80100574:	d121      	bne.n	801005ba <simple_strtoul+0x5c>
80100576:	68fb      	ldr	r3, [r7, #12]
80100578:	3301      	adds	r3, #1
8010057a:	60fb      	str	r3, [r7, #12]
8010057c:	68fb      	ldr	r3, [r7, #12]
8010057e:	781b      	ldrb	r3, [r3, #0]
80100580:	2b78      	cmp	r3, #120	; 0x78
80100582:	d003      	beq.n	8010058c <simple_strtoul+0x2e>
80100584:	68fb      	ldr	r3, [r7, #12]
80100586:	781b      	ldrb	r3, [r3, #0]
80100588:	2b58      	cmp	r3, #88	; 0x58
8010058a:	d111      	bne.n	801005b0 <simple_strtoul+0x52>
8010058c:	68fb      	ldr	r3, [r7, #12]
8010058e:	3301      	adds	r3, #1
80100590:	781b      	ldrb	r3, [r3, #0]
80100592:	461a      	mov	r2, r3
80100594:	f241 1348 	movw	r3, #4424	; 0x1148
80100598:	f2c8 0310 	movt	r3, #32784	; 0x8010
8010059c:	5c9b      	ldrb	r3, [r3, r2]
8010059e:	f003 0344 	and.w	r3, r3, #68	; 0x44
801005a2:	2b00      	cmp	r3, #0
801005a4:	d004      	beq.n	801005b0 <simple_strtoul+0x52>
801005a6:	2310      	movs	r3, #16
801005a8:	607b      	str	r3, [r7, #4]
801005aa:	68fb      	ldr	r3, [r7, #12]
801005ac:	3301      	adds	r3, #1
801005ae:	60fb      	str	r3, [r7, #12]
801005b0:	687b      	ldr	r3, [r7, #4]
801005b2:	2b00      	cmp	r3, #0
801005b4:	d101      	bne.n	801005ba <simple_strtoul+0x5c>
801005b6:	2308      	movs	r3, #8
801005b8:	607b      	str	r3, [r7, #4]
801005ba:	687b      	ldr	r3, [r7, #4]
801005bc:	2b00      	cmp	r3, #0
801005be:	d10c      	bne.n	801005da <simple_strtoul+0x7c>
801005c0:	230a      	movs	r3, #10
801005c2:	607b      	str	r3, [r7, #4]
801005c4:	e009      	b.n	801005da <simple_strtoul+0x7c>
801005c6:	697b      	ldr	r3, [r7, #20]
801005c8:	687a      	ldr	r2, [r7, #4]
801005ca:	fb02 f203 	mul.w	r2, r2, r3
801005ce:	693b      	ldr	r3, [r7, #16]
801005d0:	4413      	add	r3, r2
801005d2:	617b      	str	r3, [r7, #20]
801005d4:	68fb      	ldr	r3, [r7, #12]
801005d6:	3301      	adds	r3, #1
801005d8:	60fb      	str	r3, [r7, #12]
801005da:	68fb      	ldr	r3, [r7, #12]
801005dc:	781b      	ldrb	r3, [r3, #0]
801005de:	461a      	mov	r2, r3
801005e0:	f241 1348 	movw	r3, #4424	; 0x1148
801005e4:	f2c8 0310 	movt	r3, #32784	; 0x8010
801005e8:	5c9b      	ldrb	r3, [r3, r2]
801005ea:	f003 0344 	and.w	r3, r3, #68	; 0x44
801005ee:	2b00      	cmp	r3, #0
801005f0:	d02b      	beq.n	8010064a <simple_strtoul+0xec>
801005f2:	68fb      	ldr	r3, [r7, #12]
801005f4:	781b      	ldrb	r3, [r3, #0]
801005f6:	461a      	mov	r2, r3
801005f8:	f241 1348 	movw	r3, #4424	; 0x1148
801005fc:	f2c8 0310 	movt	r3, #32784	; 0x8010
80100600:	5c9b      	ldrb	r3, [r3, r2]
80100602:	f003 0304 	and.w	r3, r3, #4
80100606:	2b00      	cmp	r3, #0
80100608:	d003      	beq.n	80100612 <simple_strtoul+0xb4>
8010060a:	68fb      	ldr	r3, [r7, #12]
8010060c:	781b      	ldrb	r3, [r3, #0]
8010060e:	3b30      	subs	r3, #48	; 0x30
80100610:	e016      	b.n	80100640 <simple_strtoul+0xe2>
80100612:	68fb      	ldr	r3, [r7, #12]
80100614:	781b      	ldrb	r3, [r3, #0]
80100616:	461a      	mov	r2, r3
80100618:	f241 1348 	movw	r3, #4424	; 0x1148
8010061c:	f2c8 0310 	movt	r3, #32784	; 0x8010
80100620:	5c9b      	ldrb	r3, [r3, r2]
80100622:	f003 0302 	and.w	r3, r3, #2
80100626:	2b00      	cmp	r3, #0
80100628:	d007      	beq.n	8010063a <simple_strtoul+0xdc>
8010062a:	68fb      	ldr	r3, [r7, #12]
8010062c:	781b      	ldrb	r3, [r3, #0]
8010062e:	4618      	mov	r0, r3
80100630:	f7ff ff7c 	bl	8010052c <__toupper>
80100634:	4603      	mov	r3, r0
80100636:	3b37      	subs	r3, #55	; 0x37
80100638:	e002      	b.n	80100640 <simple_strtoul+0xe2>
8010063a:	68fb      	ldr	r3, [r7, #12]
8010063c:	781b      	ldrb	r3, [r3, #0]
8010063e:	3b37      	subs	r3, #55	; 0x37
80100640:	613b      	str	r3, [r7, #16]
80100642:	693a      	ldr	r2, [r7, #16]
80100644:	687b      	ldr	r3, [r7, #4]
80100646:	429a      	cmp	r2, r3
80100648:	d3bd      	bcc.n	801005c6 <simple_strtoul+0x68>
8010064a:	68bb      	ldr	r3, [r7, #8]
8010064c:	2b00      	cmp	r3, #0
8010064e:	d002      	beq.n	80100656 <simple_strtoul+0xf8>
80100650:	68bb      	ldr	r3, [r7, #8]
80100652:	68fa      	ldr	r2, [r7, #12]
80100654:	601a      	str	r2, [r3, #0]
80100656:	697b      	ldr	r3, [r7, #20]
80100658:	4618      	mov	r0, r3
8010065a:	3718      	adds	r7, #24
8010065c:	46bd      	mov	sp, r7
8010065e:	bd80      	pop	{r7, pc}

80100660 <simple_strtol>:
80100660:	b580      	push	{r7, lr}
80100662:	b084      	sub	sp, #16
80100664:	af00      	add	r7, sp, #0
80100666:	60f8      	str	r0, [r7, #12]
80100668:	60b9      	str	r1, [r7, #8]
8010066a:	607a      	str	r2, [r7, #4]
8010066c:	68fb      	ldr	r3, [r7, #12]
8010066e:	781b      	ldrb	r3, [r3, #0]
80100670:	2b2d      	cmp	r3, #45	; 0x2d
80100672:	d109      	bne.n	80100688 <simple_strtol+0x28>
80100674:	68fb      	ldr	r3, [r7, #12]
80100676:	3301      	adds	r3, #1
80100678:	687a      	ldr	r2, [r7, #4]
8010067a:	68b9      	ldr	r1, [r7, #8]
8010067c:	4618      	mov	r0, r3
8010067e:	f7ff ff6e 	bl	8010055e <simple_strtoul>
80100682:	4603      	mov	r3, r0
80100684:	425b      	negs	r3, r3
80100686:	e005      	b.n	80100694 <simple_strtol+0x34>
80100688:	687a      	ldr	r2, [r7, #4]
8010068a:	68b9      	ldr	r1, [r7, #8]
8010068c:	68f8      	ldr	r0, [r7, #12]
8010068e:	f7ff ff66 	bl	8010055e <simple_strtoul>
80100692:	4603      	mov	r3, r0
80100694:	4618      	mov	r0, r3
80100696:	3710      	adds	r7, #16
80100698:	46bd      	mov	sp, r7
8010069a:	bd80      	pop	{r7, pc}

8010069c <gets>:
8010069c:	b580      	push	{r7, lr}
8010069e:	b084      	sub	sp, #16
801006a0:	af00      	add	r7, sp, #0
801006a2:	6078      	str	r0, [r7, #4]
801006a4:	2300      	movs	r3, #0
801006a6:	60fb      	str	r3, [r7, #12]
801006a8:	f000 f8e6 	bl	80100878 <GetChar>
801006ac:	4603      	mov	r3, r0
801006ae:	72fb      	strb	r3, [r7, #11]
801006b0:	7afb      	ldrb	r3, [r7, #11]
801006b2:	4618      	mov	r0, r3
801006b4:	f000 f8c6 	bl	80100844 <PutChar>
801006b8:	7afb      	ldrb	r3, [r7, #11]
801006ba:	2b0a      	cmp	r3, #10
801006bc:	d103      	bne.n	801006c6 <gets+0x2a>
801006be:	200d      	movs	r0, #13
801006c0:	f000 f8c0 	bl	80100844 <PutChar>
801006c4:	e005      	b.n	801006d2 <gets+0x36>
801006c6:	7afb      	ldrb	r3, [r7, #11]
801006c8:	2b0d      	cmp	r3, #13
801006ca:	d102      	bne.n	801006d2 <gets+0x36>
801006cc:	200a      	movs	r0, #10
801006ce:	f000 f8b9 	bl	80100844 <PutChar>
801006d2:	7afb      	ldrb	r3, [r7, #11]
801006d4:	2b0a      	cmp	r3, #10
801006d6:	d002      	beq.n	801006de <gets+0x42>
801006d8:	7afb      	ldrb	r3, [r7, #11]
801006da:	2b0d      	cmp	r3, #13
801006dc:	d105      	bne.n	801006ea <gets+0x4e>
801006de:	68fb      	ldr	r3, [r7, #12]
801006e0:	687a      	ldr	r2, [r7, #4]
801006e2:	4413      	add	r3, r2
801006e4:	2200      	movs	r2, #0
801006e6:	701a      	strb	r2, [r3, #0]
801006e8:	e008      	b.n	801006fc <gets+0x60>
801006ea:	68fb      	ldr	r3, [r7, #12]
801006ec:	1c5a      	adds	r2, r3, #1
801006ee:	60fa      	str	r2, [r7, #12]
801006f0:	461a      	mov	r2, r3
801006f2:	687b      	ldr	r3, [r7, #4]
801006f4:	4413      	add	r3, r2
801006f6:	7afa      	ldrb	r2, [r7, #11]
801006f8:	701a      	strb	r2, [r3, #0]
801006fa:	e7d5      	b.n	801006a8 <gets+0xc>
801006fc:	687b      	ldr	r3, [r7, #4]
801006fe:	4618      	mov	r0, r3
80100700:	3710      	adds	r7, #16
80100702:	46bd      	mov	sp, r7
80100704:	bd80      	pop	{r7, pc}

80100706 <get_int>:
80100706:	b580      	push	{r7, lr}
80100708:	b09a      	sub	sp, #104	; 0x68
8010070a:	af00      	add	r7, sp, #0
8010070c:	1d3b      	adds	r3, r7, #4
8010070e:	4618      	mov	r0, r3
80100710:	f7ff ffc4 	bl	8010069c <gets>
80100714:	1d3b      	adds	r3, r7, #4
80100716:	2200      	movs	r2, #0
80100718:	2100      	movs	r1, #0
8010071a:	4618      	mov	r0, r3
8010071c:	f7ff ffa0 	bl	80100660 <simple_strtol>
80100720:	4603      	mov	r3, r0
80100722:	4618      	mov	r0, r3
80100724:	3768      	adds	r7, #104	; 0x68
80100726:	46bd      	mov	sp, r7
80100728:	bd80      	pop	{r7, pc}

8010072a <get_uint>:
8010072a:	b580      	push	{r7, lr}
8010072c:	b09a      	sub	sp, #104	; 0x68
8010072e:	af00      	add	r7, sp, #0
80100730:	1d3b      	adds	r3, r7, #4
80100732:	4618      	mov	r0, r3
80100734:	f7ff ffb2 	bl	8010069c <gets>
80100738:	1d3b      	adds	r3, r7, #4
8010073a:	2200      	movs	r2, #0
8010073c:	2100      	movs	r1, #0
8010073e:	4618      	mov	r0, r3
80100740:	f7ff ff0d 	bl	8010055e <simple_strtoul>
80100744:	4603      	mov	r3, r0
80100746:	4618      	mov	r0, r3
80100748:	3768      	adds	r7, #104	; 0x68
8010074a:	46bd      	mov	sp, r7
8010074c:	bd80      	pop	{r7, pc}

8010074e <Uart_Init>:
8010074e:	b480      	push	{r7}
80100750:	af00      	add	r7, sp, #0
80100752:	f241 227c 	movw	r2, #4732	; 0x127c
80100756:	f2c8 0210 	movt	r2, #32784	; 0x8010
8010075a:	2384      	movs	r3, #132	; 0x84
8010075c:	f2c8 030e 	movt	r3, #32782	; 0x800e
80100760:	6013      	str	r3, [r2, #0]
80100762:	f241 2280 	movw	r2, #4736	; 0x1280
80100766:	f2c8 0210 	movt	r2, #32784	; 0x8010
8010076a:	2388      	movs	r3, #136	; 0x88
8010076c:	f2c8 030e 	movt	r3, #32782	; 0x800e
80100770:	6013      	str	r3, [r2, #0]
80100772:	f241 2284 	movw	r2, #4740	; 0x1284
80100776:	f2c8 0210 	movt	r2, #32784	; 0x8010
8010077a:	f240 6324 	movw	r3, #1572	; 0x624
8010077e:	f2c8 030e 	movt	r3, #32782	; 0x800e
80100782:	6013      	str	r3, [r2, #0]
80100784:	f241 2380 	movw	r3, #4736	; 0x1280
80100788:	f2c8 0310 	movt	r3, #32784	; 0x8010
8010078c:	681b      	ldr	r3, [r3, #0]
8010078e:	2200      	movs	r2, #0
80100790:	601a      	str	r2, [r3, #0]
80100792:	f241 2384 	movw	r3, #4740	; 0x1284
80100796:	f2c8 0310 	movt	r3, #32784	; 0x8010
8010079a:	681b      	ldr	r3, [r3, #0]
8010079c:	2203      	movs	r2, #3
8010079e:	601a      	str	r2, [r3, #0]
801007a0:	f241 237c 	movw	r3, #4732	; 0x127c
801007a4:	f2c8 0310 	movt	r3, #32784	; 0x8010
801007a8:	681b      	ldr	r3, [r3, #0]
801007aa:	2200      	movs	r2, #0
801007ac:	601a      	str	r2, [r3, #0]
801007ae:	2300      	movs	r3, #0
801007b0:	f2c8 0302 	movt	r3, #32770	; 0x8002
801007b4:	2200      	movs	r2, #0
801007b6:	f2c8 0202 	movt	r2, #32770	; 0x8002
801007ba:	f8d2 2080 	ldr.w	r2, [r2, #128]	; 0x80
801007be:	f042 0201 	orr.w	r2, r2, #1
801007c2:	f8c3 2080 	str.w	r2, [r3, #128]	; 0x80
801007c6:	2200      	movs	r2, #0
801007c8:	f2c8 0202 	movt	r2, #32770	; 0x8002
801007cc:	2300      	movs	r3, #0
801007ce:	f2c8 0302 	movt	r3, #32770	; 0x8002
801007d2:	f8d3 3084 	ldr.w	r3, [r3, #132]	; 0x84
801007d6:	f443 4380 	orr.w	r3, r3, #16384	; 0x4000
801007da:	f043 0326 	orr.w	r3, r3, #38	; 0x26
801007de:	f8c2 3084 	str.w	r3, [r2, #132]	; 0x84
801007e2:	2300      	movs	r3, #0
801007e4:	f2c8 0302 	movt	r3, #32770	; 0x8002
801007e8:	2200      	movs	r2, #0
801007ea:	f2c8 0202 	movt	r2, #32770	; 0x8002
801007ee:	f8d2 2088 	ldr.w	r2, [r2, #136]	; 0x88
801007f2:	f042 0204 	orr.w	r2, r2, #4
801007f6:	f8c3 2088 	str.w	r2, [r3, #136]	; 0x88
801007fa:	2300      	movs	r3, #0
801007fc:	f2c8 0302 	movt	r3, #32770	; 0x8002
80100800:	f44f 7220 	mov.w	r2, #640	; 0x280
80100804:	f8c3 2090 	str.w	r2, [r3, #144]	; 0x90
80100808:	2300      	movs	r3, #0
8010080a:	f2c8 0302 	movt	r3, #32770	; 0x8002
8010080e:	2247      	movs	r2, #71	; 0x47
80100810:	f8c3 20a4 	str.w	r2, [r3, #164]	; 0xa4
80100814:	2300      	movs	r3, #0
80100816:	f2c8 0302 	movt	r3, #32770	; 0x8002
8010081a:	f640 4234 	movw	r2, #3124	; 0xc34
8010081e:	f8c3 20a8 	str.w	r2, [r3, #168]	; 0xa8
80100822:	2300      	movs	r3, #0
80100824:	f2c8 0302 	movt	r3, #32770	; 0x8002
80100828:	2200      	movs	r2, #0
8010082a:	f2c8 0202 	movt	r2, #32770	; 0x8002
8010082e:	f8d2 2080 	ldr.w	r2, [r2, #128]	; 0x80
80100832:	f042 0201 	orr.w	r2, r2, #1
80100836:	f8c3 2080 	str.w	r2, [r3, #128]	; 0x80
8010083a:	bf00      	nop
8010083c:	46bd      	mov	sp, r7
8010083e:	f85d 7b04 	ldr.w	r7, [sp], #4
80100842:	4770      	bx	lr

80100844 <PutChar>:
80100844:	b480      	push	{r7}
80100846:	b083      	sub	sp, #12
80100848:	af00      	add	r7, sp, #0
8010084a:	6078      	str	r0, [r7, #4]
8010084c:	bf00      	nop
8010084e:	2300      	movs	r3, #0
80100850:	f2c8 0302 	movt	r3, #32770	; 0x8002
80100854:	f8d3 3098 	ldr.w	r3, [r3, #152]	; 0x98
80100858:	f003 0308 	and.w	r3, r3, #8
8010085c:	2b00      	cmp	r3, #0
8010085e:	d0f6      	beq.n	8010084e <PutChar+0xa>
80100860:	2300      	movs	r3, #0
80100862:	f2c8 0302 	movt	r3, #32770	; 0x8002
80100866:	687a      	ldr	r2, [r7, #4]
80100868:	b2d2      	uxtb	r2, r2
8010086a:	641a      	str	r2, [r3, #64]	; 0x40
8010086c:	bf00      	nop
8010086e:	370c      	adds	r7, #12
80100870:	46bd      	mov	sp, r7
80100872:	f85d 7b04 	ldr.w	r7, [sp], #4
80100876:	4770      	bx	lr

80100878 <GetChar>:
80100878:	b480      	push	{r7}
8010087a:	af00      	add	r7, sp, #0
8010087c:	bf00      	nop
8010087e:	2300      	movs	r3, #0
80100880:	f2c8 0302 	movt	r3, #32770	; 0x8002
80100884:	f8d3 3098 	ldr.w	r3, [r3, #152]	; 0x98
80100888:	f003 0301 	and.w	r3, r3, #1
8010088c:	2b00      	cmp	r3, #0
8010088e:	d0f6      	beq.n	8010087e <GetChar+0x6>
80100890:	2300      	movs	r3, #0
80100892:	f2c8 0302 	movt	r3, #32770	; 0x8002
80100896:	681b      	ldr	r3, [r3, #0]
80100898:	b2db      	uxtb	r3, r3
8010089a:	4618      	mov	r0, r3
8010089c:	46bd      	mov	sp, r7
8010089e:	f85d 7b04 	ldr.w	r7, [sp], #4
801008a2:	4770      	bx	lr

801008a4 <PutStr>:
801008a4:	b580      	push	{r7, lr}
801008a6:	b082      	sub	sp, #8
801008a8:	af00      	add	r7, sp, #0
801008aa:	6078      	str	r0, [r7, #4]
801008ac:	e007      	b.n	801008be <PutStr+0x1a>
801008ae:	687b      	ldr	r3, [r7, #4]
801008b0:	781b      	ldrb	r3, [r3, #0]
801008b2:	4618      	mov	r0, r3
801008b4:	f7ff ffc6 	bl	80100844 <PutChar>
801008b8:	687b      	ldr	r3, [r7, #4]
801008ba:	3301      	adds	r3, #1
801008bc:	607b      	str	r3, [r7, #4]
801008be:	687b      	ldr	r3, [r7, #4]
801008c0:	781b      	ldrb	r3, [r3, #0]
801008c2:	2b00      	cmp	r3, #0
801008c4:	d1f3      	bne.n	801008ae <PutStr+0xa>
801008c6:	bf00      	nop
801008c8:	3708      	adds	r7, #8
801008ca:	46bd      	mov	sp, r7
801008cc:	bd80      	pop	{r7, pc}

801008ce <raise>:
801008ce:	b480      	push	{r7}
801008d0:	b083      	sub	sp, #12
801008d2:	af00      	add	r7, sp, #0
801008d4:	6078      	str	r0, [r7, #4]
801008d6:	2300      	movs	r3, #0
801008d8:	4618      	mov	r0, r3
801008da:	370c      	adds	r7, #12
801008dc:	46bd      	mov	sp, r7
801008de:	f85d 7b04 	ldr.w	r7, [sp], #4
801008e2:	4770      	bx	lr

801008e4 <kinit1>:
801008e4:	b580      	push	{r7, lr}
801008e6:	b082      	sub	sp, #8
801008e8:	af00      	add	r7, sp, #0
801008ea:	6078      	str	r0, [r7, #4]
801008ec:	6039      	str	r1, [r7, #0]
801008ee:	f241 2390 	movw	r3, #4752	; 0x1290
801008f2:	f2c8 0310 	movt	r3, #32784	; 0x8010
801008f6:	2200      	movs	r2, #0
801008f8:	601a      	str	r2, [r3, #0]
801008fa:	6839      	ldr	r1, [r7, #0]
801008fc:	6878      	ldr	r0, [r7, #4]
801008fe:	f000 f85c 	bl	801009ba <freerange>
80100902:	f241 00c4 	movw	r0, #4292	; 0x10c4
80100906:	f2c8 0010 	movt	r0, #32784	; 0x8010
8010090a:	f7ff fd7d 	bl	80100408 <printf>
8010090e:	bf00      	nop
80100910:	3708      	adds	r7, #8
80100912:	46bd      	mov	sp, r7
80100914:	bd80      	pop	{r7, pc}

80100916 <kinit2>:
80100916:	b580      	push	{r7, lr}
80100918:	b082      	sub	sp, #8
8010091a:	af00      	add	r7, sp, #0
8010091c:	6078      	str	r0, [r7, #4]
8010091e:	6039      	str	r1, [r7, #0]
80100920:	6839      	ldr	r1, [r7, #0]
80100922:	6878      	ldr	r0, [r7, #4]
80100924:	f000 f849 	bl	801009ba <freerange>
80100928:	bf00      	nop
8010092a:	3708      	adds	r7, #8
8010092c:	46bd      	mov	sp, r7
8010092e:	bd80      	pop	{r7, pc}

80100930 <kfree>:
80100930:	b480      	push	{r7}
80100932:	b085      	sub	sp, #20
80100934:	af00      	add	r7, sp, #0
80100936:	6078      	str	r0, [r7, #4]
80100938:	687b      	ldr	r3, [r7, #4]
8010093a:	60fb      	str	r3, [r7, #12]
8010093c:	f241 2390 	movw	r3, #4752	; 0x1290
80100940:	f2c8 0310 	movt	r3, #32784	; 0x8010
80100944:	685a      	ldr	r2, [r3, #4]
80100946:	68fb      	ldr	r3, [r7, #12]
80100948:	601a      	str	r2, [r3, #0]
8010094a:	f241 2390 	movw	r3, #4752	; 0x1290
8010094e:	f2c8 0310 	movt	r3, #32784	; 0x8010
80100952:	68fa      	ldr	r2, [r7, #12]
80100954:	605a      	str	r2, [r3, #4]
80100956:	f241 2390 	movw	r3, #4752	; 0x1290
8010095a:	f2c8 0310 	movt	r3, #32784	; 0x8010
8010095e:	681b      	ldr	r3, [r3, #0]
80100960:	1c5a      	adds	r2, r3, #1
80100962:	f241 2390 	movw	r3, #4752	; 0x1290
80100966:	f2c8 0310 	movt	r3, #32784	; 0x8010
8010096a:	601a      	str	r2, [r3, #0]
8010096c:	bf00      	nop
8010096e:	3714      	adds	r7, #20
80100970:	46bd      	mov	sp, r7
80100972:	f85d 7b04 	ldr.w	r7, [sp], #4
80100976:	4770      	bx	lr

80100978 <kalloc>:
80100978:	b480      	push	{r7}
8010097a:	b083      	sub	sp, #12
8010097c:	af00      	add	r7, sp, #0
8010097e:	f241 2390 	movw	r3, #4752	; 0x1290
80100982:	f2c8 0310 	movt	r3, #32784	; 0x8010
80100986:	681b      	ldr	r3, [r3, #0]
80100988:	2b00      	cmp	r3, #0
8010098a:	d00d      	beq.n	801009a8 <kalloc+0x30>
8010098c:	f241 2390 	movw	r3, #4752	; 0x1290
80100990:	f2c8 0310 	movt	r3, #32784	; 0x8010
80100994:	685b      	ldr	r3, [r3, #4]
80100996:	607b      	str	r3, [r7, #4]
80100998:	687b      	ldr	r3, [r7, #4]
8010099a:	681a      	ldr	r2, [r3, #0]
8010099c:	f241 2390 	movw	r3, #4752	; 0x1290
801009a0:	f2c8 0310 	movt	r3, #32784	; 0x8010
801009a4:	605a      	str	r2, [r3, #4]
801009a6:	e001      	b.n	801009ac <kalloc+0x34>
801009a8:	2300      	movs	r3, #0
801009aa:	607b      	str	r3, [r7, #4]
801009ac:	687b      	ldr	r3, [r7, #4]
801009ae:	4618      	mov	r0, r3
801009b0:	370c      	adds	r7, #12
801009b2:	46bd      	mov	sp, r7
801009b4:	f85d 7b04 	ldr.w	r7, [sp], #4
801009b8:	4770      	bx	lr

801009ba <freerange>:
801009ba:	b580      	push	{r7, lr}
801009bc:	b084      	sub	sp, #16
801009be:	af00      	add	r7, sp, #0
801009c0:	6078      	str	r0, [r7, #4]
801009c2:	6039      	str	r1, [r7, #0]
801009c4:	687b      	ldr	r3, [r7, #4]
801009c6:	f603 73ff 	addw	r3, r3, #4095	; 0xfff
801009ca:	f423 637f 	bic.w	r3, r3, #4080	; 0xff0
801009ce:	f023 030f 	bic.w	r3, r3, #15
801009d2:	60fb      	str	r3, [r7, #12]
801009d4:	e006      	b.n	801009e4 <freerange+0x2a>
801009d6:	68f8      	ldr	r0, [r7, #12]
801009d8:	f7ff ffaa 	bl	80100930 <kfree>
801009dc:	68fb      	ldr	r3, [r7, #12]
801009de:	f503 5380 	add.w	r3, r3, #4096	; 0x1000
801009e2:	60fb      	str	r3, [r7, #12]
801009e4:	68fb      	ldr	r3, [r7, #12]
801009e6:	f503 5280 	add.w	r2, r3, #4096	; 0x1000
801009ea:	683b      	ldr	r3, [r7, #0]
801009ec:	429a      	cmp	r2, r3
801009ee:	d9f2      	bls.n	801009d6 <freerange+0x1c>
801009f0:	bf00      	nop
801009f2:	3710      	adds	r7, #16
801009f4:	46bd      	mov	sp, r7
801009f6:	bd80      	pop	{r7, pc}

801009f8 <change_page_addr>:
801009f8:	b480      	push	{r7}
801009fa:	b085      	sub	sp, #20
801009fc:	af00      	add	r7, sp, #0
801009fe:	6078      	str	r0, [r7, #4]
80100a00:	687b      	ldr	r3, [r7, #4]
80100a02:	68fa      	ldr	r2, [r7, #12]
80100a04:	f04f 0200 	mov.w	r2, #0
80100a08:	ee07 2f15 	mcr	15, 0, r2, cr7, cr5, {0}
80100a0c:	ee07 2fd5 	mcr	15, 0, r2, cr7, cr5, {6}
80100a10:	ee08 2f17 	mcr	15, 0, r2, cr8, cr7, {0}
80100a14:	f3bf 8f6f 	isb	sy
80100a18:	ee02 3f10 	mcr	15, 0, r3, cr2, cr0, {0}
80100a1c:	bf00      	nop
80100a1e:	3714      	adds	r7, #20
80100a20:	46bd      	mov	sp, r7
80100a22:	f85d 7b04 	ldr.w	r7, [sp], #4
80100a26:	4770      	bx	lr

80100a28 <enter_trap>:
80100a28:	b480      	push	{r7}
80100a2a:	b083      	sub	sp, #12
80100a2c:	af00      	add	r7, sp, #0
80100a2e:	6078      	str	r0, [r7, #4]
80100a30:	687b      	ldr	r3, [r7, #4]
80100a32:	b500      	push	{lr}
80100a34:	4618      	mov	r0, r3
80100a36:	df00      	svc	0
80100a38:	f85d eb04 	ldr.w	lr, [sp], #4
80100a3c:	bf00      	nop
80100a3e:	370c      	adds	r7, #12
80100a40:	46bd      	mov	sp, r7
80100a42:	f85d 7b04 	ldr.w	r7, [sp], #4
80100a46:	4770      	bx	lr

80100a48 <walkpgdir>:
80100a48:	b580      	push	{r7, lr}
80100a4a:	b086      	sub	sp, #24
80100a4c:	af00      	add	r7, sp, #0
80100a4e:	60f8      	str	r0, [r7, #12]
80100a50:	60b9      	str	r1, [r7, #8]
80100a52:	607a      	str	r2, [r7, #4]
80100a54:	68bb      	ldr	r3, [r7, #8]
80100a56:	0d1b      	lsrs	r3, r3, #20
80100a58:	009b      	lsls	r3, r3, #2
80100a5a:	68fa      	ldr	r2, [r7, #12]
80100a5c:	4413      	add	r3, r2
80100a5e:	613b      	str	r3, [r7, #16]
80100a60:	693b      	ldr	r3, [r7, #16]
80100a62:	681b      	ldr	r3, [r3, #0]
80100a64:	f003 0301 	and.w	r3, r3, #1
80100a68:	2b00      	cmp	r3, #0
80100a6a:	d007      	beq.n	80100a7c <walkpgdir+0x34>
80100a6c:	693b      	ldr	r3, [r7, #16]
80100a6e:	681b      	ldr	r3, [r3, #0]
80100a70:	f423 737f 	bic.w	r3, r3, #1020	; 0x3fc
80100a74:	f023 0303 	bic.w	r3, r3, #3
80100a78:	617b      	str	r3, [r7, #20]
80100a7a:	e04c      	b.n	80100b16 <walkpgdir+0xce>
80100a7c:	f241 2378 	movw	r3, #4728	; 0x1278
80100a80:	f2c8 0310 	movt	r3, #32784	; 0x8010
80100a84:	681b      	ldr	r3, [r3, #0]
80100a86:	2b04      	cmp	r3, #4
80100a88:	d127      	bne.n	80100ada <walkpgdir+0x92>
80100a8a:	f7ff ff75 	bl	80100978 <kalloc>
80100a8e:	4602      	mov	r2, r0
80100a90:	f241 2388 	movw	r3, #4744	; 0x1288
80100a94:	f2c8 0310 	movt	r3, #32784	; 0x8010
80100a98:	601a      	str	r2, [r3, #0]
80100a9a:	f241 2388 	movw	r3, #4744	; 0x1288
80100a9e:	f2c8 0310 	movt	r3, #32784	; 0x8010
80100aa2:	681b      	ldr	r3, [r3, #0]
80100aa4:	2b00      	cmp	r3, #0
80100aa6:	d107      	bne.n	80100ab8 <walkpgdir+0x70>
80100aa8:	f241 00d4 	movw	r0, #4308	; 0x10d4
80100aac:	f2c8 0010 	movt	r0, #32784	; 0x8010
80100ab0:	f7ff fcaa 	bl	80100408 <printf>
80100ab4:	2300      	movs	r3, #0
80100ab6:	e034      	b.n	80100b22 <walkpgdir+0xda>
80100ab8:	f241 2388 	movw	r3, #4744	; 0x1288
80100abc:	f2c8 0310 	movt	r3, #32784	; 0x8010
80100ac0:	681b      	ldr	r3, [r3, #0]
80100ac2:	f44f 5280 	mov.w	r2, #4096	; 0x1000
80100ac6:	2100      	movs	r1, #0
80100ac8:	4618      	mov	r0, r3
80100aca:	f000 f8d3 	bl	80100c74 <memset>
80100ace:	f241 2378 	movw	r3, #4728	; 0x1278
80100ad2:	f2c8 0310 	movt	r3, #32784	; 0x8010
80100ad6:	2200      	movs	r2, #0
80100ad8:	601a      	str	r2, [r3, #0]
80100ada:	f241 2378 	movw	r3, #4728	; 0x1278
80100ade:	f2c8 0310 	movt	r3, #32784	; 0x8010
80100ae2:	681b      	ldr	r3, [r3, #0]
80100ae4:	029b      	lsls	r3, r3, #10
80100ae6:	461a      	mov	r2, r3
80100ae8:	f241 2388 	movw	r3, #4744	; 0x1288
80100aec:	f2c8 0310 	movt	r3, #32784	; 0x8010
80100af0:	681b      	ldr	r3, [r3, #0]
80100af2:	4413      	add	r3, r2
80100af4:	617b      	str	r3, [r7, #20]
80100af6:	f241 2378 	movw	r3, #4728	; 0x1278
80100afa:	f2c8 0310 	movt	r3, #32784	; 0x8010
80100afe:	681b      	ldr	r3, [r3, #0]
80100b00:	1c5a      	adds	r2, r3, #1
80100b02:	f241 2378 	movw	r3, #4728	; 0x1278
80100b06:	f2c8 0310 	movt	r3, #32784	; 0x8010
80100b0a:	601a      	str	r2, [r3, #0]
80100b0c:	697b      	ldr	r3, [r7, #20]
80100b0e:	f043 0201 	orr.w	r2, r3, #1
80100b12:	693b      	ldr	r3, [r7, #16]
80100b14:	601a      	str	r2, [r3, #0]
80100b16:	68bb      	ldr	r3, [r7, #8]
80100b18:	0b1b      	lsrs	r3, r3, #12
80100b1a:	b2db      	uxtb	r3, r3
80100b1c:	009b      	lsls	r3, r3, #2
80100b1e:	697a      	ldr	r2, [r7, #20]
80100b20:	4413      	add	r3, r2
80100b22:	4618      	mov	r0, r3
80100b24:	3718      	adds	r7, #24
80100b26:	46bd      	mov	sp, r7
80100b28:	bd80      	pop	{r7, pc}

80100b2a <mappages>:
80100b2a:	b580      	push	{r7, lr}
80100b2c:	b088      	sub	sp, #32
80100b2e:	af00      	add	r7, sp, #0
80100b30:	60f8      	str	r0, [r7, #12]
80100b32:	60b9      	str	r1, [r7, #8]
80100b34:	607a      	str	r2, [r7, #4]
80100b36:	603b      	str	r3, [r7, #0]
80100b38:	68bb      	ldr	r3, [r7, #8]
80100b3a:	f423 637f 	bic.w	r3, r3, #4080	; 0xff0
80100b3e:	f023 030f 	bic.w	r3, r3, #15
80100b42:	61fb      	str	r3, [r7, #28]
80100b44:	68ba      	ldr	r2, [r7, #8]
80100b46:	683b      	ldr	r3, [r7, #0]
80100b48:	4413      	add	r3, r2
80100b4a:	3b01      	subs	r3, #1
80100b4c:	f423 637f 	bic.w	r3, r3, #4080	; 0xff0
80100b50:	f023 030f 	bic.w	r3, r3, #15
80100b54:	61bb      	str	r3, [r7, #24]
80100b56:	2201      	movs	r2, #1
80100b58:	69f9      	ldr	r1, [r7, #28]
80100b5a:	68f8      	ldr	r0, [r7, #12]
80100b5c:	f7ff ff74 	bl	80100a48 <walkpgdir>
80100b60:	6178      	str	r0, [r7, #20]
80100b62:	697b      	ldr	r3, [r7, #20]
80100b64:	2b00      	cmp	r3, #0
80100b66:	d102      	bne.n	80100b6e <mappages+0x44>
80100b68:	f04f 33ff 	mov.w	r3, #4294967295	; 0xffffffff
80100b6c:	e013      	b.n	80100b96 <mappages+0x6c>
80100b6e:	6aba      	ldr	r2, [r7, #40]	; 0x28
80100b70:	687b      	ldr	r3, [r7, #4]
80100b72:	431a      	orrs	r2, r3
80100b74:	697b      	ldr	r3, [r7, #20]
80100b76:	601a      	str	r2, [r3, #0]
80100b78:	69fa      	ldr	r2, [r7, #28]
80100b7a:	69bb      	ldr	r3, [r7, #24]
80100b7c:	429a      	cmp	r2, r3
80100b7e:	d008      	beq.n	80100b92 <mappages+0x68>
80100b80:	69fb      	ldr	r3, [r7, #28]
80100b82:	f503 5380 	add.w	r3, r3, #4096	; 0x1000
80100b86:	61fb      	str	r3, [r7, #28]
80100b88:	687b      	ldr	r3, [r7, #4]
80100b8a:	f503 5380 	add.w	r3, r3, #4096	; 0x1000
80100b8e:	607b      	str	r3, [r7, #4]
80100b90:	e7e1      	b.n	80100b56 <mappages+0x2c>
80100b92:	bf00      	nop
80100b94:	2300      	movs	r3, #0
80100b96:	4618      	mov	r0, r3
80100b98:	3720      	adds	r7, #32
80100b9a:	46bd      	mov	sp, r7
80100b9c:	bd80      	pop	{r7, pc}

80100b9e <kvmalloc>:
80100b9e:	b580      	push	{r7, lr}
80100ba0:	af00      	add	r7, sp, #0
80100ba2:	f000 f81c 	bl	80100bde <setupkvm>
80100ba6:	4602      	mov	r2, r0
80100ba8:	f241 2398 	movw	r3, #4760	; 0x1298
80100bac:	f2c8 0310 	movt	r3, #32784	; 0x8010
80100bb0:	601a      	str	r2, [r3, #0]
80100bb2:	f000 f808 	bl	80100bc6 <switchkvm>
80100bb6:	f241 00e4 	movw	r0, #4324	; 0x10e4
80100bba:	f2c8 0010 	movt	r0, #32784	; 0x8010
80100bbe:	f7ff fc23 	bl	80100408 <printf>
80100bc2:	bf00      	nop
80100bc4:	bd80      	pop	{r7, pc}

80100bc6 <switchkvm>:
80100bc6:	b580      	push	{r7, lr}
80100bc8:	af00      	add	r7, sp, #0
80100bca:	f241 2398 	movw	r3, #4760	; 0x1298
80100bce:	f2c8 0310 	movt	r3, #32784	; 0x8010
80100bd2:	681b      	ldr	r3, [r3, #0]
80100bd4:	4618      	mov	r0, r3
80100bd6:	f7ff ff0f 	bl	801009f8 <change_page_addr>
80100bda:	bf00      	nop
80100bdc:	bd80      	pop	{r7, pc}

80100bde <setupkvm>:
80100bde:	b580      	push	{r7, lr}
80100be0:	b086      	sub	sp, #24
80100be2:	af02      	add	r7, sp, #8
80100be4:	2300      	movs	r3, #0
80100be6:	607b      	str	r3, [r7, #4]
80100be8:	e010      	b.n	80100c0c <setupkvm+0x2e>
80100bea:	f7ff fec5 	bl	80100978 <kalloc>
80100bee:	60f8      	str	r0, [r7, #12]
80100bf0:	68fb      	ldr	r3, [r7, #12]
80100bf2:	2b00      	cmp	r3, #0
80100bf4:	d107      	bne.n	80100c06 <setupkvm+0x28>
80100bf6:	f241 00f4 	movw	r0, #4340	; 0x10f4
80100bfa:	f2c8 0010 	movt	r0, #32784	; 0x8010
80100bfe:	f7ff fc03 	bl	80100408 <printf>
80100c02:	2300      	movs	r3, #0
80100c04:	e02f      	b.n	80100c66 <setupkvm+0x88>
80100c06:	687b      	ldr	r3, [r7, #4]
80100c08:	3301      	adds	r3, #1
80100c0a:	607b      	str	r3, [r7, #4]
80100c0c:	687b      	ldr	r3, [r7, #4]
80100c0e:	2b03      	cmp	r3, #3
80100c10:	ddeb      	ble.n	80100bea <setupkvm+0xc>
80100c12:	f44f 4280 	mov.w	r2, #16384	; 0x4000
80100c16:	2100      	movs	r1, #0
80100c18:	68f8      	ldr	r0, [r7, #12]
80100c1a:	f000 f82b 	bl	80100c74 <memset>
80100c1e:	f241 2348 	movw	r3, #4680	; 0x1248
80100c22:	f2c8 0310 	movt	r3, #32784	; 0x8010
80100c26:	60bb      	str	r3, [r7, #8]
80100c28:	e018      	b.n	80100c5c <setupkvm+0x7e>
80100c2a:	68bb      	ldr	r3, [r7, #8]
80100c2c:	6819      	ldr	r1, [r3, #0]
80100c2e:	68bb      	ldr	r3, [r7, #8]
80100c30:	6858      	ldr	r0, [r3, #4]
80100c32:	68bb      	ldr	r3, [r7, #8]
80100c34:	689a      	ldr	r2, [r3, #8]
80100c36:	68bb      	ldr	r3, [r7, #8]
80100c38:	685b      	ldr	r3, [r3, #4]
80100c3a:	1ad2      	subs	r2, r2, r3
80100c3c:	68bb      	ldr	r3, [r7, #8]
80100c3e:	68db      	ldr	r3, [r3, #12]
80100c40:	9300      	str	r3, [sp, #0]
80100c42:	4613      	mov	r3, r2
80100c44:	4602      	mov	r2, r0
80100c46:	68f8      	ldr	r0, [r7, #12]
80100c48:	f7ff ff6f 	bl	80100b2a <mappages>
80100c4c:	4603      	mov	r3, r0
80100c4e:	2b00      	cmp	r3, #0
80100c50:	da01      	bge.n	80100c56 <setupkvm+0x78>
80100c52:	2300      	movs	r3, #0
80100c54:	e007      	b.n	80100c66 <setupkvm+0x88>
80100c56:	68bb      	ldr	r3, [r7, #8]
80100c58:	3310      	adds	r3, #16
80100c5a:	60bb      	str	r3, [r7, #8]
80100c5c:	68bb      	ldr	r3, [r7, #8]
80100c5e:	4a04      	ldr	r2, [pc, #16]	; (80100c70 <setupkvm+0x92>)
80100c60:	4293      	cmp	r3, r2
80100c62:	d3e2      	bcc.n	80100c2a <setupkvm+0x4c>
80100c64:	68fb      	ldr	r3, [r7, #12]
80100c66:	4618      	mov	r0, r3
80100c68:	3710      	adds	r7, #16
80100c6a:	46bd      	mov	sp, r7
80100c6c:	bd80      	pop	{r7, pc}
80100c6e:	bf00      	nop
80100c70:	80101278 	andshi	r1, r0, r8, ror r2

80100c74 <memset>:
80100c74:	b480      	push	{r7}
80100c76:	b087      	sub	sp, #28
80100c78:	af00      	add	r7, sp, #0
80100c7a:	60f8      	str	r0, [r7, #12]
80100c7c:	60b9      	str	r1, [r7, #8]
80100c7e:	607a      	str	r2, [r7, #4]
80100c80:	68fb      	ldr	r3, [r7, #12]
80100c82:	617b      	str	r3, [r7, #20]
80100c84:	68bb      	ldr	r3, [r7, #8]
80100c86:	b2db      	uxtb	r3, r3
80100c88:	60bb      	str	r3, [r7, #8]
80100c8a:	e006      	b.n	80100c9a <memset+0x26>
80100c8c:	68bb      	ldr	r3, [r7, #8]
80100c8e:	b2da      	uxtb	r2, r3
80100c90:	697b      	ldr	r3, [r7, #20]
80100c92:	701a      	strb	r2, [r3, #0]
80100c94:	697b      	ldr	r3, [r7, #20]
80100c96:	3301      	adds	r3, #1
80100c98:	617b      	str	r3, [r7, #20]
80100c9a:	687b      	ldr	r3, [r7, #4]
80100c9c:	1e5a      	subs	r2, r3, #1
80100c9e:	607a      	str	r2, [r7, #4]
80100ca0:	2b00      	cmp	r3, #0
80100ca2:	d1f3      	bne.n	80100c8c <memset+0x18>
80100ca4:	68fb      	ldr	r3, [r7, #12]
80100ca6:	4618      	mov	r0, r3
80100ca8:	371c      	adds	r7, #28
80100caa:	46bd      	mov	sp, r7
80100cac:	f85d 7b04 	ldr.w	r7, [sp], #4
80100cb0:	4770      	bx	lr

80100cb2 <test1>:
80100cb2:	b580      	push	{r7, lr}
80100cb4:	af00      	add	r7, sp, #0
80100cb6:	f241 1004 	movw	r0, #4356	; 0x1104
80100cba:	f2c8 0010 	movt	r0, #32784	; 0x8010
80100cbe:	f7ff fba3 	bl	80100408 <printf>
80100cc2:	bf00      	nop
80100cc4:	bd80      	pop	{r7, pc}

80100cc6 <test2>:
80100cc6:	b580      	push	{r7, lr}
80100cc8:	af00      	add	r7, sp, #0
80100cca:	f241 1014 	movw	r0, #4372	; 0x1114
80100cce:	f2c8 0010 	movt	r0, #32784	; 0x8010
80100cd2:	f7ff fb99 	bl	80100408 <printf>
80100cd6:	bf00      	nop
80100cd8:	bd80      	pop	{r7, pc}

80100cda <trap>:
80100cda:	b580      	push	{r7, lr}
80100cdc:	b082      	sub	sp, #8
80100cde:	af00      	add	r7, sp, #0
80100ce0:	6078      	str	r0, [r7, #4]
80100ce2:	687b      	ldr	r3, [r7, #4]
80100ce4:	f023 4300 	bic.w	r3, r3, #2147483648	; 0x80000000
80100ce8:	4619      	mov	r1, r3
80100cea:	f241 1024 	movw	r0, #4388	; 0x1124
80100cee:	f2c8 0010 	movt	r0, #32784	; 0x8010
80100cf2:	f7ff fb89 	bl	80100408 <printf>
80100cf6:	bf00      	nop
80100cf8:	3708      	adds	r7, #8
80100cfa:	46bd      	mov	sp, r7
80100cfc:	bd80      	pop	{r7, pc}
	...

80100d00 <_software_interrupt>:
80100d00:	e92d5fff 	push	{r0, r1, r2, r3, r4, r5, r6, r7, r8, r9, sl, fp, ip, lr}
80100d04:	e1a0000e 	mov	r0, lr
80100d08:	fbfffff2 	blx	80100cda <trap>
80100d0c:	e8bd5fff 	pop	{r0, r1, r2, r3, r4, r5, r6, r7, r8, r9, sl, fp, ip, lr}
80100d10:	e1b0f00e 	movs	pc, lr

80100d14 <_data_abort>:
80100d14:	e92d5fff 	push	{r0, r1, r2, r3, r4, r5, r6, r7, r8, r9, sl, fp, ip, lr}
80100d18:	fbffffe9 	blx	80100cc6 <test2>
80100d1c:	fbffffed 	blx	80100cda <trap>
80100d20:	e8bd5fff 	pop	{r0, r1, r2, r3, r4, r5, r6, r7, r8, r9, sl, fp, ip, lr}
80100d24:	e25ef008 	subs	pc, lr, #8

80100d28 <__aeabi_uidiv>:
80100d28:	1e4a      	subs	r2, r1, #1
80100d2a:	bf08      	it	eq
80100d2c:	4770      	bxeq	lr
80100d2e:	f0c0 8124 	bcc.w	80100f7a <__aeabi_uidiv+0x252>
80100d32:	4288      	cmp	r0, r1
80100d34:	f240 8116 	bls.w	80100f64 <__aeabi_uidiv+0x23c>
80100d38:	4211      	tst	r1, r2
80100d3a:	f000 8117 	beq.w	80100f6c <__aeabi_uidiv+0x244>
80100d3e:	fab0 f380 	clz	r3, r0
80100d42:	fab1 f281 	clz	r2, r1
80100d46:	eba2 0303 	sub.w	r3, r2, r3
80100d4a:	f1c3 031f 	rsb	r3, r3, #31
80100d4e:	a204      	add	r2, pc, #16	; (adr r2, 80100d60 <__aeabi_uidiv+0x38>)
80100d50:	eb02 1303 	add.w	r3, r2, r3, lsl #4
80100d54:	f04f 0200 	mov.w	r2, #0
80100d58:	469f      	mov	pc, r3
80100d5a:	bf00      	nop
80100d5c:	f3af 8000 	nop.w
80100d60:	ebb0 7fc1 	cmp.w	r0, r1, lsl #31
80100d64:	bf00      	nop
80100d66:	eb42 0202 	adc.w	r2, r2, r2
80100d6a:	bf28      	it	cs
80100d6c:	eba0 70c1 	subcs.w	r0, r0, r1, lsl #31
80100d70:	ebb0 7f81 	cmp.w	r0, r1, lsl #30
80100d74:	bf00      	nop
80100d76:	eb42 0202 	adc.w	r2, r2, r2
80100d7a:	bf28      	it	cs
80100d7c:	eba0 7081 	subcs.w	r0, r0, r1, lsl #30
80100d80:	ebb0 7f41 	cmp.w	r0, r1, lsl #29
80100d84:	bf00      	nop
80100d86:	eb42 0202 	adc.w	r2, r2, r2
80100d8a:	bf28      	it	cs
80100d8c:	eba0 7041 	subcs.w	r0, r0, r1, lsl #29
80100d90:	ebb0 7f01 	cmp.w	r0, r1, lsl #28
80100d94:	bf00      	nop
80100d96:	eb42 0202 	adc.w	r2, r2, r2
80100d9a:	bf28      	it	cs
80100d9c:	eba0 7001 	subcs.w	r0, r0, r1, lsl #28
80100da0:	ebb0 6fc1 	cmp.w	r0, r1, lsl #27
80100da4:	bf00      	nop
80100da6:	eb42 0202 	adc.w	r2, r2, r2
80100daa:	bf28      	it	cs
80100dac:	eba0 60c1 	subcs.w	r0, r0, r1, lsl #27
80100db0:	ebb0 6f81 	cmp.w	r0, r1, lsl #26
80100db4:	bf00      	nop
80100db6:	eb42 0202 	adc.w	r2, r2, r2
80100dba:	bf28      	it	cs
80100dbc:	eba0 6081 	subcs.w	r0, r0, r1, lsl #26
80100dc0:	ebb0 6f41 	cmp.w	r0, r1, lsl #25
80100dc4:	bf00      	nop
80100dc6:	eb42 0202 	adc.w	r2, r2, r2
80100dca:	bf28      	it	cs
80100dcc:	eba0 6041 	subcs.w	r0, r0, r1, lsl #25
80100dd0:	ebb0 6f01 	cmp.w	r0, r1, lsl #24
80100dd4:	bf00      	nop
80100dd6:	eb42 0202 	adc.w	r2, r2, r2
80100dda:	bf28      	it	cs
80100ddc:	eba0 6001 	subcs.w	r0, r0, r1, lsl #24
80100de0:	ebb0 5fc1 	cmp.w	r0, r1, lsl #23
80100de4:	bf00      	nop
80100de6:	eb42 0202 	adc.w	r2, r2, r2
80100dea:	bf28      	it	cs
80100dec:	eba0 50c1 	subcs.w	r0, r0, r1, lsl #23
80100df0:	ebb0 5f81 	cmp.w	r0, r1, lsl #22
80100df4:	bf00      	nop
80100df6:	eb42 0202 	adc.w	r2, r2, r2
80100dfa:	bf28      	it	cs
80100dfc:	eba0 5081 	subcs.w	r0, r0, r1, lsl #22
80100e00:	ebb0 5f41 	cmp.w	r0, r1, lsl #21
80100e04:	bf00      	nop
80100e06:	eb42 0202 	adc.w	r2, r2, r2
80100e0a:	bf28      	it	cs
80100e0c:	eba0 5041 	subcs.w	r0, r0, r1, lsl #21
80100e10:	ebb0 5f01 	cmp.w	r0, r1, lsl #20
80100e14:	bf00      	nop
80100e16:	eb42 0202 	adc.w	r2, r2, r2
80100e1a:	bf28      	it	cs
80100e1c:	eba0 5001 	subcs.w	r0, r0, r1, lsl #20
80100e20:	ebb0 4fc1 	cmp.w	r0, r1, lsl #19
80100e24:	bf00      	nop
80100e26:	eb42 0202 	adc.w	r2, r2, r2
80100e2a:	bf28      	it	cs
80100e2c:	eba0 40c1 	subcs.w	r0, r0, r1, lsl #19
80100e30:	ebb0 4f81 	cmp.w	r0, r1, lsl #18
80100e34:	bf00      	nop
80100e36:	eb42 0202 	adc.w	r2, r2, r2
80100e3a:	bf28      	it	cs
80100e3c:	eba0 4081 	subcs.w	r0, r0, r1, lsl #18
80100e40:	ebb0 4f41 	cmp.w	r0, r1, lsl #17
80100e44:	bf00      	nop
80100e46:	eb42 0202 	adc.w	r2, r2, r2
80100e4a:	bf28      	it	cs
80100e4c:	eba0 4041 	subcs.w	r0, r0, r1, lsl #17
80100e50:	ebb0 4f01 	cmp.w	r0, r1, lsl #16
80100e54:	bf00      	nop
80100e56:	eb42 0202 	adc.w	r2, r2, r2
80100e5a:	bf28      	it	cs
80100e5c:	eba0 4001 	subcs.w	r0, r0, r1, lsl #16
80100e60:	ebb0 3fc1 	cmp.w	r0, r1, lsl #15
80100e64:	bf00      	nop
80100e66:	eb42 0202 	adc.w	r2, r2, r2
80100e6a:	bf28      	it	cs
80100e6c:	eba0 30c1 	subcs.w	r0, r0, r1, lsl #15
80100e70:	ebb0 3f81 	cmp.w	r0, r1, lsl #14
80100e74:	bf00      	nop
80100e76:	eb42 0202 	adc.w	r2, r2, r2
80100e7a:	bf28      	it	cs
80100e7c:	eba0 3081 	subcs.w	r0, r0, r1, lsl #14
80100e80:	ebb0 3f41 	cmp.w	r0, r1, lsl #13
80100e84:	bf00      	nop
80100e86:	eb42 0202 	adc.w	r2, r2, r2
80100e8a:	bf28      	it	cs
80100e8c:	eba0 3041 	subcs.w	r0, r0, r1, lsl #13
80100e90:	ebb0 3f01 	cmp.w	r0, r1, lsl #12
80100e94:	bf00      	nop
80100e96:	eb42 0202 	adc.w	r2, r2, r2
80100e9a:	bf28      	it	cs
80100e9c:	eba0 3001 	subcs.w	r0, r0, r1, lsl #12
80100ea0:	ebb0 2fc1 	cmp.w	r0, r1, lsl #11
80100ea4:	bf00      	nop
80100ea6:	eb42 0202 	adc.w	r2, r2, r2
80100eaa:	bf28      	it	cs
80100eac:	eba0 20c1 	subcs.w	r0, r0, r1, lsl #11
80100eb0:	ebb0 2f81 	cmp.w	r0, r1, lsl #10
80100eb4:	bf00      	nop
80100eb6:	eb42 0202 	adc.w	r2, r2, r2
80100eba:	bf28      	it	cs
80100ebc:	eba0 2081 	subcs.w	r0, r0, r1, lsl #10
80100ec0:	ebb0 2f41 	cmp.w	r0, r1, lsl #9
80100ec4:	bf00      	nop
80100ec6:	eb42 0202 	adc.w	r2, r2, r2
80100eca:	bf28      	it	cs
80100ecc:	eba0 2041 	subcs.w	r0, r0, r1, lsl #9
80100ed0:	ebb0 2f01 	cmp.w	r0, r1, lsl #8
80100ed4:	bf00      	nop
80100ed6:	eb42 0202 	adc.w	r2, r2, r2
80100eda:	bf28      	it	cs
80100edc:	eba0 2001 	subcs.w	r0, r0, r1, lsl #8
80100ee0:	ebb0 1fc1 	cmp.w	r0, r1, lsl #7
80100ee4:	bf00      	nop
80100ee6:	eb42 0202 	adc.w	r2, r2, r2
80100eea:	bf28      	it	cs
80100eec:	eba0 10c1 	subcs.w	r0, r0, r1, lsl #7
80100ef0:	ebb0 1f81 	cmp.w	r0, r1, lsl #6
80100ef4:	bf00      	nop
80100ef6:	eb42 0202 	adc.w	r2, r2, r2
80100efa:	bf28      	it	cs
80100efc:	eba0 1081 	subcs.w	r0, r0, r1, lsl #6
80100f00:	ebb0 1f41 	cmp.w	r0, r1, lsl #5
80100f04:	bf00      	nop
80100f06:	eb42 0202 	adc.w	r2, r2, r2
80100f0a:	bf28      	it	cs
80100f0c:	eba0 1041 	subcs.w	r0, r0, r1, lsl #5
80100f10:	ebb0 1f01 	cmp.w	r0, r1, lsl #4
80100f14:	bf00      	nop
80100f16:	eb42 0202 	adc.w	r2, r2, r2
80100f1a:	bf28      	it	cs
80100f1c:	eba0 1001 	subcs.w	r0, r0, r1, lsl #4
80100f20:	ebb0 0fc1 	cmp.w	r0, r1, lsl #3
80100f24:	bf00      	nop
80100f26:	eb42 0202 	adc.w	r2, r2, r2
80100f2a:	bf28      	it	cs
80100f2c:	eba0 00c1 	subcs.w	r0, r0, r1, lsl #3
80100f30:	ebb0 0f81 	cmp.w	r0, r1, lsl #2
80100f34:	bf00      	nop
80100f36:	eb42 0202 	adc.w	r2, r2, r2
80100f3a:	bf28      	it	cs
80100f3c:	eba0 0081 	subcs.w	r0, r0, r1, lsl #2
80100f40:	ebb0 0f41 	cmp.w	r0, r1, lsl #1
80100f44:	bf00      	nop
80100f46:	eb42 0202 	adc.w	r2, r2, r2
80100f4a:	bf28      	it	cs
80100f4c:	eba0 0041 	subcs.w	r0, r0, r1, lsl #1
80100f50:	ebb0 0f01 	cmp.w	r0, r1
80100f54:	bf00      	nop
80100f56:	eb42 0202 	adc.w	r2, r2, r2
80100f5a:	bf28      	it	cs
80100f5c:	eba0 0001 	subcs.w	r0, r0, r1
80100f60:	4610      	mov	r0, r2
80100f62:	4770      	bx	lr
80100f64:	bf0c      	ite	eq
80100f66:	2001      	moveq	r0, #1
80100f68:	2000      	movne	r0, #0
80100f6a:	4770      	bx	lr
80100f6c:	fab1 f281 	clz	r2, r1
80100f70:	f1c2 021f 	rsb	r2, r2, #31
80100f74:	fa20 f002 	lsr.w	r0, r0, r2
80100f78:	4770      	bx	lr
80100f7a:	b108      	cbz	r0, 80100f80 <__aeabi_uidiv+0x258>
80100f7c:	f04f 30ff 	mov.w	r0, #4294967295	; 0xffffffff
80100f80:	f000 b80e 	b.w	80100fa0 <__aeabi_idiv0>

80100f84 <__aeabi_uidivmod>:
80100f84:	2900      	cmp	r1, #0
80100f86:	d0f8      	beq.n	80100f7a <__aeabi_uidiv+0x252>
80100f88:	e92d 4003 	stmdb	sp!, {r0, r1, lr}
80100f8c:	f7ff fecc 	bl	80100d28 <__aeabi_uidiv>
80100f90:	e8bd 4006 	ldmia.w	sp!, {r1, r2, lr}
80100f94:	fb02 f300 	mul.w	r3, r2, r0
80100f98:	eba1 0103 	sub.w	r1, r1, r3
80100f9c:	4770      	bx	lr
80100f9e:	bf00      	nop

80100fa0 <__aeabi_idiv0>:
80100fa0:	b502      	push	{r1, lr}
80100fa2:	f04f 0008 	mov.w	r0, #8
80100fa6:	f7ff fc92 	bl	801008ce <raise>
80100faa:	bd02      	pop	{r1, pc}

Disassembly of section .rodata:

80100fac <rodata_start>:
80100fac:	73696854 	cmnvc	r9, #84, 16	; 0x540000
80100fb0:	20736920 	rsbscs	r6, r3, r0, lsr #18
80100fb4:	2e777777 	mrccs	7, 3, r7, cr7, cr7, {3}
80100fb8:	61303031 	teqvs	r0, r1, lsr r0
80100fbc:	6f2e6b73 	svcvs	0x002e6b73
80100fc0:	20206772 	eorcs	r6, r0, r2, ror r7
80100fc4:	5f796d20 	svcpl	0x00796d20
80100fc8:	6e697270 	mcrvs	2, 3, r7, cr9, cr0, {3}
80100fcc:	74206674 	strtvc	r6, [r0], #-1652	; 0xfffff98c
80100fd0:	0a747365 	beq	81e1dd6c <Kernel_end+0x1a1dd6c>
80100fd4:	0000000d 	andeq	r0, r0, sp

80100fd8 <.LC1>:
80100fd8:	74736574 	ldrbtvc	r6, [r3], #-1396	; 0xfffffa8c
80100fdc:	61686320 	cmnvs	r8, r0, lsr #6
80100fe0:	20202072 	eorcs	r2, r0, r2, ror r0
80100fe4:	20202020 	eorcs	r2, r0, r0, lsr #32
80100fe8:	20202020 	eorcs	r2, r0, r0, lsr #32
80100fec:	2c63253d 	cfstr64cs	mvdx2, [r3], #-244	; 0xffffff0c
80100ff0:	0d0a6325 	stceq	3, cr6, [sl, #-148]	; 0xffffff6c
80100ff4:	00000000 	andeq	r0, r0, r0

80100ff8 <.LC2>:
80100ff8:	74736574 	ldrbtvc	r6, [r3], #-1396	; 0xfffffa8c
80100ffc:	63656420 	cmnvs	r5, #32, 8	; 0x20000000
80101000:	6c616d69 	stclvs	13, cr6, [r1], #-420	; 0xfffffe5c
80101004:	6d756e20 	ldclvs	14, cr6, [r5, #-128]!	; 0xffffff80
80101008:	20726562 	rsbscs	r6, r2, r2, ror #10
8010100c:	0a64253d 	beq	81a0a508 <Kernel_end+0x160a508>
80101010:	0000000d 	andeq	r0, r0, sp

80101014 <.LC3>:
80101014:	74736574 	ldrbtvc	r6, [r3], #-1396	; 0xfffffa8c
80101018:	78656820 	stmdavc	r5!, {r5, fp, sp, lr}^
8010101c:	20202020 	eorcs	r2, r0, r0, lsr #32
80101020:	6d756e20 	ldclvs	14, cr6, [r5, #-128]!	; 0xffffff80
80101024:	20726562 	rsbscs	r6, r2, r2, ror #10
80101028:	2578303d 	ldrbcs	r3, [r8, #-61]!	; 0xffffffc3
8010102c:	000d0a78 	andeq	r0, sp, r8, ror sl

80101030 <.LC4>:
80101030:	2e777777 	mrccs	7, 3, r7, cr7, cr7, {3}
80101034:	61303031 	teqvs	r0, r1, lsr r0
80101038:	6f2e6b73 	svcvs	0x002e6b73
8010103c:	00006772 	andeq	r6, r0, r2, ror r7

80101040 <.LC5>:
80101040:	74736574 	ldrbtvc	r6, [r3], #-1396	; 0xfffffa8c
80101044:	72747320 	rsbsvc	r7, r4, #32, 6	; 0x80000000
80101048:	20676e69 	rsbcs	r6, r7, r9, ror #28
8010104c:	20202020 	eorcs	r2, r0, r0, lsr #32
80101050:	20202020 	eorcs	r2, r0, r0, lsr #32
80101054:	0a73253d 	beq	81dca550 <Kernel_end+0x19ca550>
80101058:	0000000d 	andeq	r0, r0, sp

8010105c <.LC6>:
8010105c:	3d6d756e 	cfstr64cc	mvdx7, [sp, #-440]!	; 0xfffffe48
80101060:	64383025 	ldrtvs	r3, [r8], #-37	; 0xffffffdb
80101064:	00000d0a 	andeq	r0, r0, sl, lsl #26

80101068 <.LC7>:
80101068:	3d6d756e 	cfstr64cc	mvdx7, [sp, #-440]!	; 0xfffffe48
8010106c:	0a643825 	beq	81a0f108 <Kernel_end+0x160f108>
80101070:	0000000d 	andeq	r0, r0, sp

80101074 <.LC8>:
80101074:	3d6d756e 	cfstr64cc	mvdx7, [sp, #-440]!	; 0xfffffe48
80101078:	30257830 	eorcc	r7, r5, r0, lsr r8
8010107c:	0d0a7838 	stceq	8, cr7, [sl, #-224]	; 0xffffff20
80101080:	00000000 	andeq	r0, r0, r0

80101084 <.LC9>:
80101084:	3d6d756e 	cfstr64cc	mvdx7, [sp, #-440]!	; 0xfffffe48
80101088:	38257830 	stmdacc	r5!, {r4, r5, fp, ip, sp, lr}
8010108c:	000d0a78 	andeq	r0, sp, r8, ror sl

80101090 <.LC10>:
80101090:	3d6d756e 	cfstr64cc	mvdx7, [sp, #-440]!	; 0xfffffe48
80101094:	30257830 	eorcc	r7, r5, r0, lsr r8
80101098:	0d0a7832 	stceq	8, cr7, [sl, #-200]	; 0xffffff38
8010109c:	00000000 	andeq	r0, r0, r0

801010a0 <.LC11>:
801010a0:	3d6d756e 	cfstr64cc	mvdx7, [sp, #-440]!	; 0xfffffe48
801010a4:	32257830 	eorcc	r7, r5, #48, 16	; 0x300000
801010a8:	000d0a78 	andeq	r0, sp, r8, ror sl

801010ac <.LC12>:
801010ac:	3d6d756e 	cfstr64cc	mvdx7, [sp, #-440]!	; 0xfffffe48
801010b0:	64353025 	ldrtvs	r3, [r5], #-37	; 0xffffffdb
801010b4:	00000d0a 	andeq	r0, r0, sl, lsl #26

801010b8 <.LC13>:
801010b8:	3d6d756e 	cfstr64cc	mvdx7, [sp, #-440]!	; 0xfffffe48
801010bc:	0a643525 	beq	81a0e558 <Kernel_end+0x160e558>
801010c0:	0000000d 	andeq	r0, r0, sp

801010c4 <.LC0>:
801010c4:	696e696b 	stmdbvs	lr!, {r0, r1, r3, r5, r6, r8, fp, sp, lr}^
801010c8:	6f203174 	svcvs	0x00203174
801010cc:	0a726576 	beq	81d9a6ac <Kernel_end+0x199a6ac>
801010d0:	0000000d 	andeq	r0, r0, sp

801010d4 <.LC0>:
801010d4:	e9baa9e7 	ldmib	sl!, {r0, r1, r2, r5, r6, r7, r8, fp, sp, pc}
801010d8:	b8e4b497 	stmialt	r4!, {r0, r1, r2, r4, r7, sl, ip, sp, pc}^
801010dc:	b3b6e88d 			; <UNDEFINED> instruction: 0xb3b6e88d
801010e0:	00000d0a 	andeq	r0, r0, sl, lsl #26

801010e4 <.LC1>:
801010e4:	616d766b 	cmnvs	sp, fp, ror #12
801010e8:	636f6c6c 	cmnvs	pc, #108, 24	; 0x6c00
801010ec:	65766f20 	ldrbvs	r6, [r6, #-3872]!	; 0xfffff0e0
801010f0:	000d0a72 	andeq	r0, sp, r2, ror sl

801010f4 <.LC2>:
801010f4:	e58586e5 	str	r8, [r5, #1765]	; 0x6e5
801010f8:	b8e498ad 	stmialt	r4!, {r0, r2, r3, r5, r7, fp, ip, pc}^
801010fc:	b3b6e88d 			; <UNDEFINED> instruction: 0xb3b6e88d
80101100:	00000d0a 	andeq	r0, r0, sl, lsl #26

80101104 <.LC0>:
80101104:	6c6c6548 	cfstr64vs	mvdx6, [ip], #-288	; 0xfffffee0
80101108:	6f57206f 	svcvs	0x0057206f
8010110c:	0a646c72 	beq	81a1c2dc <Kernel_end+0x161c2dc>
80101110:	0000000d 	andeq	r0, r0, sp

80101114 <.LC1>:
80101114:	6c726f57 	ldclvs	15, cr6, [r2], #-348	; 0xfffffea4
80101118:	65482064 	strbvs	r2, [r8, #-100]	; 0xffffff9c
8010111c:	0a6f6c6c 	beq	81cdc2d4 <Kernel_end+0x18dc2d4>
80101120:	0000000d 	andeq	r0, r0, sp

80101124 <.LC0>:
80101124:	65207825 	strvs	r7, [r0, #-2085]!	; 0xfffff7db
80101128:	70656378 	rsbvc	r6, r5, r8, ror r3
8010112c:	6e6f6974 			; <UNDEFINED> instruction: 0x6e6f6974
80101130:	65766f20 	ldrbvs	r6, [r6, #-3872]!	; 0xfffff0e0
80101134:	000d0a72 	andeq	r0, sp, r2, ror sl

Disassembly of section .data:

80101138 <data_start>:
80101138:	33323130 	teqcc	r2, #48, 2
8010113c:	37363534 			; <UNDEFINED> instruction: 0x37363534
80101140:	62613938 	rsbvs	r3, r1, #56, 18	; 0xe0000
80101144:	66656463 	strbtvs	r6, [r5], -r3, ror #8

80101148 <_ctype>:
80101148:	08080808 	stmdaeq	r8, {r3, fp}
8010114c:	08080808 	stmdaeq	r8, {r3, fp}
80101150:	28282808 	stmdacs	r8!, {r3, fp, sp}
80101154:	08082828 	stmdaeq	r8, {r3, r5, fp, sp}
80101158:	08080808 	stmdaeq	r8, {r3, fp}
8010115c:	08080808 	stmdaeq	r8, {r3, fp}
80101160:	08080808 	stmdaeq	r8, {r3, fp}
80101164:	08080808 	stmdaeq	r8, {r3, fp}
80101168:	101010a0 	andsne	r1, r0, r0, lsr #1
8010116c:	10101010 	andsne	r1, r0, r0, lsl r0
80101170:	10101010 	andsne	r1, r0, r0, lsl r0
80101174:	10101010 	andsne	r1, r0, r0, lsl r0
80101178:	04040404 	streq	r0, [r4], #-1028	; 0xfffffbfc
8010117c:	04040404 	streq	r0, [r4], #-1028	; 0xfffffbfc
80101180:	10100404 	andsne	r0, r0, r4, lsl #8
80101184:	10101010 	andsne	r1, r0, r0, lsl r0
80101188:	41414110 	cmpmi	r1, r0, lsl r1
8010118c:	01414141 	cmpeq	r1, r1, asr #2
80101190:	01010101 	tsteq	r1, r1, lsl #2
80101194:	01010101 	tsteq	r1, r1, lsl #2
80101198:	01010101 	tsteq	r1, r1, lsl #2
8010119c:	01010101 	tsteq	r1, r1, lsl #2
801011a0:	10010101 	andne	r0, r1, r1, lsl #2
801011a4:	10101010 	andsne	r1, r0, r0, lsl r0
801011a8:	42424210 	submi	r4, r2, #16, 4
801011ac:	02424242 	subeq	r4, r2, #536870916	; 0x20000004
801011b0:	02020202 	andeq	r0, r2, #536870912	; 0x20000000
801011b4:	02020202 	andeq	r0, r2, #536870912	; 0x20000000
801011b8:	02020202 	andeq	r0, r2, #536870912	; 0x20000000
801011bc:	02020202 	andeq	r0, r2, #536870912	; 0x20000000
801011c0:	10020202 	andne	r0, r2, r2, lsl #4
801011c4:	08101010 	ldmdaeq	r0, {r4, ip}
	...
801011e8:	101010a0 	andsne	r1, r0, r0, lsr #1
801011ec:	10101010 	andsne	r1, r0, r0, lsl r0
801011f0:	10101010 	andsne	r1, r0, r0, lsl r0
801011f4:	10101010 	andsne	r1, r0, r0, lsl r0
801011f8:	10101010 	andsne	r1, r0, r0, lsl r0
801011fc:	10101010 	andsne	r1, r0, r0, lsl r0
80101200:	10101010 	andsne	r1, r0, r0, lsl r0
80101204:	10101010 	andsne	r1, r0, r0, lsl r0
80101208:	01010101 	tsteq	r1, r1, lsl #2
8010120c:	01010101 	tsteq	r1, r1, lsl #2
80101210:	01010101 	tsteq	r1, r1, lsl #2
80101214:	01010101 	tsteq	r1, r1, lsl #2
80101218:	01010101 	tsteq	r1, r1, lsl #2
8010121c:	10010101 	andne	r0, r1, r1, lsl #2
80101220:	01010101 	tsteq	r1, r1, lsl #2
80101224:	02010101 	andeq	r0, r1, #1073741824	; 0x40000000
80101228:	02020202 	andeq	r0, r2, #536870912	; 0x20000000
8010122c:	02020202 	andeq	r0, r2, #536870912	; 0x20000000
80101230:	02020202 	andeq	r0, r2, #536870912	; 0x20000000
80101234:	02020202 	andeq	r0, r2, #536870912	; 0x20000000
80101238:	02020202 	andeq	r0, r2, #536870912	; 0x20000000
8010123c:	10020202 	andne	r0, r2, r2, lsl #4
80101240:	02020202 	andeq	r0, r2, #536870912	; 0x20000000
80101244:	02020202 	andeq	r0, r2, #536870912	; 0x20000000

80101248 <kmap>:
80101248:	80000000 	andhi	r0, r0, r0
8010124c:	02000000 	andeq	r0, r0, #0
80101250:	02100000 	andseq	r0, r0, #0
80101254:	00000032 	andeq	r0, r0, r2, lsr r0
80101258:	80100000 	andshi	r0, r0, r0
8010125c:	80100000 	andshi	r0, r0, r0
80101260:	80101138 	andshi	r1, r0, r8, lsr r1
80101264:	00000032 	andeq	r0, r0, r2, lsr r0
80101268:	80101138 	andshi	r1, r0, r8, lsr r1
8010126c:	80101138 	andshi	r1, r0, r8, lsr r1
80101270:	80e00000 	rschi	r0, r0, r0
80101274:	00000032 	andeq	r0, r0, r2, lsr r0

80101278 <cnt.5459>:
80101278:	00000004 	andeq	r0, r0, r4

Disassembly of section .bss:

8010127c <__bss_start>:
8010127c:	00000000 	andeq	r0, r0, r0

80101280 <IOMUXC_SW_MUX_CTL_PAD_UART1_RX_DATA>:
80101280:	00000000 	andeq	r0, r0, r0

80101284 <IOMUXC_UART1_RX_DATA_SELECT_INPUT>:
80101284:	00000000 	andeq	r0, r0, r0

80101288 <nowpg.5460>:
80101288:	00000000 	andeq	r0, r0, r0

8010128c <i.5437>:
8010128c:	00000000 	andeq	r0, r0, r0

80101290 <kmem>:
	...

80101298 <kpgdir>:
80101298:	00000000 	andeq	r0, r0, r0

Disassembly of section .ARM.attributes:

00000000 <.ARM.attributes>:
   0:	00002e41 	andeq	r2, r0, r1, asr #28
   4:	61656100 	cmnvs	r5, r0, lsl #2
   8:	01006962 	tsteq	r0, r2, ror #18
   c:	00000024 	andeq	r0, r0, r4, lsr #32
  10:	412d3705 			; <UNDEFINED> instruction: 0x412d3705
  14:	070a0600 	streq	r0, [sl, -r0, lsl #12]
  18:	09010841 	stmdbeq	r1, {r0, r6, fp}
  1c:	12040a02 	andne	r0, r4, #8192	; 0x2000
  20:	15011404 	strne	r1, [r1, #-1028]	; 0xfffffbfc
  24:	18031701 	stmdane	r3, {r0, r8, r9, sl, ip}
  28:	1c021a01 			; <UNDEFINED> instruction: 0x1c021a01
  2c:	Address 0x000000000000002c is out of bounds.


Disassembly of section .comment:

00000000 <.comment>:
   0:	3a434347 	bcc	10d0d24 <shift+0x10d0d24>
   4:	694c2820 	stmdbvs	ip, {r5, fp, sp}^
   8:	6f72616e 	svcvs	0x0072616e
   c:	43434720 	movtmi	r4, #14112	; 0x3720
  10:	322e3620 	eorcc	r3, lr, #32, 12	; 0x2000000
  14:	3130322d 	teqcc	r0, sp, lsr #4
  18:	31312e36 	teqcc	r1, r6, lsr lr
  1c:	2e362029 	cdpcs	0, 3, cr2, cr6, cr9, {1}
  20:	20312e32 	eorscs	r2, r1, r2, lsr lr
  24:	36313032 			; <UNDEFINED> instruction: 0x36313032
  28:	36313031 			; <UNDEFINED> instruction: 0x36313031
	...

Disassembly of section .debug_line:

00000000 <.debug_line>:
   0:	0000005b 	andeq	r0, r0, fp, asr r0
   4:	002c0002 	eoreq	r0, ip, r2
   8:	01020000 	mrseq	r0, (UNDEF: 2)
   c:	000d0efb 	strdeq	r0, [sp], -fp
  10:	01010101 	tsteq	r1, r1, lsl #2
  14:	01000000 	mrseq	r0, (UNDEF: 0)
  18:	2e010000 	cdpcs	0, 0, cr0, cr1, cr0, {0}
  1c:	72654b2f 	rsbvc	r4, r5, #48128	; 0xbc00
  20:	006c656e 	rsbeq	r6, ip, lr, ror #10
  24:	6f6f6200 	svcvs	0x006f6200
  28:	616f6c74 	smcvs	63172	; 0xf6c4
  2c:	2e726564 	cdpcs	5, 7, cr6, cr2, cr4, {3}
  30:	00010053 	andeq	r0, r1, r3, asr r0
  34:	05000000 	streq	r0, [r0, #-0]
  38:	10000002 	andne	r0, r0, r2
  3c:	694c1780 	stmdbvs	ip, {r7, r8, r9, sl, ip}^
  40:	3132326e 	teqcc	r2, lr, ror #4
  44:	2f36302f 	svccs	0x0036302f
  48:	30302f30 	eorscc	r2, r0, r0, lsr pc
  4c:	2f31302f 	svccs	0x0031302f
  50:	2e5e032f 	cdpcs	3, 5, cr0, cr14, cr15, {1}
  54:	032e1503 			; <UNDEFINED> instruction: 0x032e1503
  58:	02022e0b 	andeq	r2, r2, #11, 28	; 0xb0
  5c:	8d010100 	stfhis	f0, [r1, #-0]
  60:	02000000 	andeq	r0, r0, #0
  64:	00004e00 	andeq	r4, r0, r0, lsl #28
  68:	fb010200 	blx	40872 <shift+0x40872>
  6c:	01000d0e 	tsteq	r0, lr, lsl #26
  70:	00010101 	andeq	r0, r1, r1, lsl #2
  74:	00010000 	andeq	r0, r1, r0
  78:	2f2e0100 	svccs	0x002e0100
  7c:	6e72654b 	cdpvs	5, 7, cr6, cr2, cr11, {2}
  80:	2e2f6c65 	cdpcs	12, 2, cr6, cr15, cr5, {3}
  84:	61562f2e 	cmpvs	r6, lr, lsr #30
  88:	74656972 	strbtvc	r6, [r5], #-2418	; 0xfffff68e
  8c:	2f2e0079 	svccs	0x002e0079
  90:	6e72654b 	cdpvs	5, 7, cr6, cr2, cr11, {2}
  94:	00006c65 	andeq	r6, r0, r5, ror #24
  98:	2e6d7261 	cdpcs	2, 6, cr7, cr13, cr1, {3}
  9c:	00010068 	andeq	r0, r1, r8, rrx
  a0:	69616d00 	stmdbvs	r1!, {r8, sl, fp, sp, lr}^
  a4:	00632e6e 	rsbeq	r2, r3, lr, ror #28
  a8:	74000002 	strvc	r0, [r0], #-2
  ac:	73657079 	cmnvc	r5, #121	; 0x79
  b0:	0100682e 	tsteq	r0, lr, lsr #16
  b4:	00000000 	andeq	r0, r0, r0
  b8:	00700205 	rsbseq	r0, r0, r5, lsl #4
  bc:	4c158010 	ldcmi	0, cr8, [r5], {16}
  c0:	69d60903 	ldmibvs	r6, {r0, r1, r8, fp}^
  c4:	02046d4b 	andeq	r6, r4, #4800	; 0x12c0
  c8:	2f667203 	svccs	0x00667203
  cc:	2130832f 	teqcs	r0, pc, lsr #6
  d0:	003e3d30 	eorseq	r3, lr, r0, lsr sp
  d4:	3e030402 	cdpcc	4, 0, cr0, cr3, cr2, {0}
  d8:	03040200 	movweq	r0, #16896	; 0x4200
  dc:	04020072 	streq	r0, [r2], #-114	; 0xffffff8e
  e0:	064a0601 	strbeq	r0, [sl], -r1, lsl #12
  e4:	3e21914e 	absccsm	f1, #0.5
  e8:	029f3d75 	addseq	r3, pc, #7488	; 0x1d40
  ec:	01010006 	tsteq	r1, r6
  f0:	000000ca 	andeq	r0, r0, sl, asr #1
  f4:	00290002 	eoreq	r0, r9, r2
  f8:	01020000 	mrseq	r0, (UNDEF: 2)
  fc:	000d0efb 	strdeq	r0, [sp], -fp
 100:	01010101 	tsteq	r1, r1, lsl #2
 104:	01000000 	mrseq	r0, (UNDEF: 0)
 108:	2e010000 	cdpcs	0, 0, cr0, cr1, cr0, {0}
 10c:	7261752f 	rsbvc	r7, r1, #197132288	; 0xbc00000
 110:	6d000074 	stcvs	0, cr0, [r0, #-464]	; 0xfffffe30
 114:	72705f79 	rsbsvc	r5, r0, #484	; 0x1e4
 118:	66746e69 	ldrbtvs	r6, [r4], -r9, ror #28
 11c:	0100632e 	tsteq	r0, lr, lsr #6
 120:	00000000 	andeq	r0, r0, r0
 124:	01600205 	cmneq	r0, r5, lsl #4
 128:	15038010 	strne	r8, [r3, #-16]
 12c:	213d4b01 	teqcs	sp, r1, lsl #22
 130:	73214b4d 			; <UNDEFINED> instruction: 0x73214b4d
 134:	834d214c 	movthi	r2, #53580	; 0xd14c
 138:	684d4b2f 	stmdavs	sp, {r0, r1, r2, r3, r5, r8, r9, fp, lr}^
 13c:	02004d3d 	andeq	r4, r0, #3904	; 0xf40
 140:	00320104 	eorseq	r0, r2, r4, lsl #2
 144:	08010402 	stmdaeq	r1, {r1, sl}
 148:	04020021 	streq	r0, [r2], #-33	; 0xffffffdf
 14c:	00a03d01 	adceq	r3, r0, r1, lsl #26
 150:	06010402 	streq	r0, [r1], -r2, lsl #8
 154:	004b063c 	subeq	r0, fp, ip, lsr r6
 158:	59030402 	stmdbpl	r3, {r1, sl}
 15c:	03040200 	movweq	r0, #16896	; 0x4200
 160:	04020065 	streq	r0, [r2], #-101	; 0xffffff9b
 164:	063c0601 	ldrteq	r0, [ip], -r1, lsl #12
 168:	4b683d40 	blmi	1a0f670 <shift+0x1a0f670>
 16c:	302f594e 	eorcc	r5, pc, lr, asr #18
 170:	23594b22 	cmpcs	r9, #34816	; 0x8800
 174:	4b3d312f 	blmi	f4c638 <shift+0xf4c638>
 178:	6721402f 	strvs	r4, [r1, -pc, lsr #32]!
 17c:	02003967 	andeq	r3, r0, #1687552	; 0x19c000
 180:	4a060104 	bmi	180598 <shift+0x180598>
 184:	34025006 	strcc	r5, [r2], #-6
 188:	c9c9bb13 	stmibgt	r9, {r0, r1, r4, r8, r9, fp, ip, sp, pc}^
 18c:	59a19fc9 	stmibpl	r1!, {r0, r3, r6, r7, r8, r9, sl, fp, ip, pc}
 190:	00205e03 	eoreq	r5, r0, r3, lsl #28
 194:	06010402 	streq	r0, [r1], -r2, lsl #8
 198:	2503063c 	strcs	r0, [r3, #-1596]	; 0xfffff9c4
 19c:	0f032158 	svceq	0x00032158
 1a0:	593d4d4a 	ldmdbpl	sp!, {r1, r3, r6, r8, sl, fp, lr}
 1a4:	0e03212f 	adfeqsp	f2, f3, #10.0
 1a8:	83672f74 	cmnhi	r7, #116, 30	; 0x1d0
 1ac:	9f9f9f9f 	svcls	0x009f9f9f
 1b0:	9f9f8383 	svcls	0x009f8383
 1b4:	76757675 			; <UNDEFINED> instruction: 0x76757675
 1b8:	00020221 	andeq	r0, r2, r1, lsr #4
 1bc:	00b80101 	adcseq	r0, r8, r1, lsl #2
 1c0:	00020000 	andeq	r0, r2, r0
 1c4:	0000002c 	andeq	r0, r0, ip, lsr #32
 1c8:	0efb0102 	cdpeq	1, 15, cr0, cr11, cr2, {0}
 1cc:	0101000d 	tsteq	r1, sp
 1d0:	00000101 	andeq	r0, r0, r1, lsl #2
 1d4:	00000100 	andeq	r0, r0, r0, lsl #2
 1d8:	752f2e01 	strvc	r2, [pc, #-3585]!	; fffff3df <Kernel_end+0x7fbff3df>
 1dc:	00747261 	rsbseq	r7, r4, r1, ror #4
 1e0:	72747300 	rsbsvc	r7, r4, #0, 6
 1e4:	5f676e69 	svcpl	0x00676e69
 1e8:	6c697475 	cfstrdvs	mvd7, [r9], #-468	; 0xfffffe2c
 1ec:	00632e73 	rsbeq	r2, r3, r3, ror lr
 1f0:	00000001 	andeq	r0, r0, r1
 1f4:	2c020500 	cfstr32cs	mvfx0, [r2], {-0}
 1f8:	03801005 	orreq	r1, r0, #5
 1fc:	590100cd 	stmdbpl	r1, {r0, r2, r3, r6, r7}
 200:	03213d9f 			; <UNDEFINED> instruction: 0x03213d9f
 204:	30676613 	rsbcc	r6, r7, r3, lsl r6
 208:	02003d4b 	andeq	r3, r0, #4800	; 0x12c0
 20c:	4a060204 	bmi	180a24 <shift+0x180a24>
 210:	03040200 	movweq	r0, #16896	; 0x4200
 214:	2fc9064a 	svccs	0x00c9064a
 218:	3d313d3e 	ldccc	13, cr3, [r1, #-248]!	; 0xffffff08
 21c:	39752230 	ldmdbcc	r5!, {r4, r5, r9, sp}^
 220:	01040200 	mrseq	r0, R12_usr
 224:	0200ba06 	andeq	fp, r0, #24576	; 0x6000
 228:	00ba0204 	adcseq	r0, sl, r4, lsl #4
 22c:	4a030402 	bmi	c123c <shift+0xc123c>
 230:	05040200 	streq	r0, [r4, #-512]	; 0xfffffe00
 234:	0200bb06 	andeq	fp, r0, #6144	; 0x1800
 238:	82060604 	andhi	r0, r6, #4, 12	; 0x400000
 23c:	09040200 	stmdbeq	r4, {r9}
 240:	3d5d3b06 	vldrcc	d19, [sp, #-24]	; 0xffffffe8
 244:	1003213d 	andne	r2, r3, sp, lsr r1
 248:	9f4b674a 	svcls	0x004b674a
 24c:	4a0e0367 	bmi	380ff0 <shift+0x380ff0>
 250:	4b4d334b 	blmi	134cf84 <shift+0x134cf84>
 254:	3e3d4b3d 	vmovcc.s16	r4, d13[2]
 258:	01040200 	mrseq	r0, R12_usr
 25c:	3e063c06 	cdpcc	12, 0, cr3, cr6, cr6, {0}
 260:	6f032459 	svcvs	0x00032459
 264:	20150382 	andscs	r0, r5, r2, lsl #7
 268:	4a0d0321 	bmi	340ef4 <shift+0x340ef4>
 26c:	03754b3e 	cmneq	r5, #63488	; 0xf800
 270:	4b3e4a0d 	blmi	f92aac <shift+0xf92aac>
 274:	00040275 	andeq	r0, r4, r5, ror r2
 278:	007a0101 	rsbseq	r0, sl, r1, lsl #2
 27c:	00020000 	andeq	r0, r2, r0
 280:	0000002e 	andeq	r0, r0, lr, lsr #32
 284:	0efb0102 	cdpeq	1, 15, cr0, cr11, cr2, {0}
 288:	0101000d 	tsteq	r1, sp
 28c:	00000101 	andeq	r0, r0, r1, lsl #2
 290:	00000100 	andeq	r0, r0, r0, lsl #2
 294:	752f2e01 	strvc	r2, [pc, #-3585]!	; fffff49b <Kernel_end+0x7fbff49b>
 298:	00747261 	rsbseq	r7, r4, r1, ror #4
 29c:	72617500 	rsbvc	r7, r1, #0, 10
 2a0:	00632e74 	rsbeq	r2, r3, r4, ror lr
 2a4:	75000001 	strvc	r0, [r0, #-1]
 2a8:	2e747261 	cdpcs	2, 7, cr7, cr4, cr1, {3}
 2ac:	00010068 	andeq	r0, r1, r8, rrx
 2b0:	05000000 	streq	r0, [r0, #-0]
 2b4:	10074e02 	andne	r4, r7, r2, lsl #28
 2b8:	01110380 	tsteq	r1, r0, lsl #7
 2bc:	92838330 	addls	r8, r3, #48, 6	; 0xc0000000
 2c0:	03767575 	cmneq	r6, #490733568	; 0x1d400000
 2c4:	03ddba0d 	bicseq	fp, sp, #53248	; 0xd000
 2c8:	6775ba10 			; <UNDEFINED> instruction: 0x6775ba10
 2cc:	0d03bb76 	vstreq	d11, [r3, #-472]	; 0xfffffe28
 2d0:	02004b58 	andeq	r4, r0, #88, 22	; 0x16000
 2d4:	20060104 	andcs	r0, r6, r4, lsl #2
 2d8:	03679206 	cmneq	r7, #1610612736	; 0x60000000
 2dc:	002f660d 	eoreq	r6, pc, sp, lsl #12
 2e0:	06010402 	streq	r0, [r1], -r2, lsl #8
 2e4:	59920620 	ldmibpl	r2, {r5, r9, sl}
 2e8:	4b580d03 	blmi	16036fc <shift+0x16036fc>
 2ec:	4f395922 	svcmi	0x00395922
 2f0:	02214b4c 	eoreq	r4, r1, #76, 22	; 0x13000
 2f4:	01010006 	tsteq	r1, r6
 2f8:	000000a1 	andeq	r0, r0, r1, lsr #1
 2fc:	00630002 	rsbeq	r0, r3, r2
 300:	01020000 	mrseq	r0, (UNDEF: 2)
 304:	000d0efb 	strdeq	r0, [sp], -fp
 308:	01010101 	tsteq	r1, r1, lsl #2
 30c:	01000000 	mrseq	r0, (UNDEF: 0)
 310:	2e010000 	cdpcs	0, 0, cr0, cr1, cr0, {0}
 314:	6d654d2f 	stclvs	13, cr4, [r5, #-188]!	; 0xffffff44
 318:	5f79726f 	svcpl	0x0079726f
 31c:	616e614d 	cmnvs	lr, sp, asr #2
 320:	2e006567 	cfsh32cs	mvfx6, mvfx0, #55
 324:	6d654d2f 	stclvs	13, cr4, [r5, #-188]!	; 0xffffff44
 328:	5f79726f 	svcpl	0x0079726f
 32c:	616e614d 	cmnvs	lr, sp, asr #2
 330:	2e2f6567 	cfsh64cs	mvdx6, mvdx15, #55
 334:	61562f2e 	cmpvs	r6, lr, lsr #30
 338:	74656972 	strbtvc	r6, [r5], #-2418	; 0xfffff68e
 33c:	6b000079 	blvs	528 <shift+0x528>
 340:	6f6c6c61 	svcvs	0x006c6c61
 344:	00632e63 	rsbeq	r2, r3, r3, ror #28
 348:	74000001 	strvc	r0, [r0], #-1
 34c:	73657079 	cmnvc	r5, #121	; 0x79
 350:	0200682e 	andeq	r6, r0, #3014656	; 0x2e0000
 354:	623c0000 	eorsvs	r0, ip, #0
 358:	746c6975 	strbtvc	r6, [ip], #-2421	; 0xfffff68b
 35c:	3e6e692d 	vmulcc.f16	s13, s28, s27	; <UNPREDICTABLE>
 360:	00000000 	andeq	r0, r0, r0
 364:	02050000 	andeq	r0, r5, #0
 368:	801008e4 	andshi	r0, r0, r4, ror #17
 36c:	59010f03 	stmdbpl	r1, {r0, r1, r8, r9, sl, fp}
 370:	4c674b67 			; <UNDEFINED> instruction: 0x4c674b67
 374:	4d4d4b59 	vstrmi	d20, [sp, #-356]	; 0xfffffe9c
 378:	ad67752f 	cfstr64ge	mvdx7, [r7, #-188]!	; 0xffffff44
 37c:	67763e68 	ldrbvs	r3, [r6, -r8, ror #28]!
 380:	69213086 	stmdbvs	r1!, {r1, r2, r7, ip, sp}
 384:	02008359 	andeq	r8, r0, #1677721601	; 0x64000001
 388:	00220204 	eoreq	r0, r2, r4, lsl #4
 38c:	3a020402 	bcc	8139c <shift+0x8139c>
 390:	01040200 	mrseq	r0, R12_usr
 394:	6a064a06 	bvs	192bb4 <shift+0x192bb4>
 398:	01000402 	tsteq	r0, r2, lsl #8
 39c:	0000c401 	andeq	ip, r0, r1, lsl #8
 3a0:	5a000200 	bpl	ba8 <shift+0xba8>
 3a4:	02000000 	andeq	r0, r0, #0
 3a8:	0d0efb01 	vstreq	d15, [lr, #-4]
 3ac:	01010100 	mrseq	r0, (UNDEF: 17)
 3b0:	00000001 	andeq	r0, r0, r1
 3b4:	01000001 	tsteq	r0, r1
 3b8:	654d2f2e 	strbvs	r2, [sp, #-3886]	; 0xfffff0d2
 3bc:	79726f6d 	ldmdbvc	r2!, {r0, r2, r3, r5, r6, r8, r9, sl, fp, sp, lr}^
 3c0:	6e614d5f 	mcrvs	13, 3, r4, cr1, cr15, {2}
 3c4:	2f656761 	svccs	0x00656761
 3c8:	562f2e2e 	strtpl	r2, [pc], -lr, lsr #28
 3cc:	65697261 	strbvs	r7, [r9, #-609]!	; 0xfffffd9f
 3d0:	2e007974 			; <UNDEFINED> instruction: 0x2e007974
 3d4:	6d654d2f 	stclvs	13, cr4, [r5, #-188]!	; 0xffffff44
 3d8:	5f79726f 	svcpl	0x0079726f
 3dc:	616e614d 	cmnvs	lr, sp, asr #2
 3e0:	00006567 	andeq	r6, r0, r7, ror #10
 3e4:	2e6d7261 	cdpcs	2, 6, cr7, cr13, cr1, {3}
 3e8:	00010068 	andeq	r0, r1, r8, rrx
 3ec:	2e6d7600 	cdpcs	6, 6, cr7, cr13, cr0, {0}
 3f0:	00020063 	andeq	r0, r2, r3, rrx
 3f4:	70797400 	rsbsvc	r7, r9, r0, lsl #8
 3f8:	682e7365 	stmdavs	lr!, {r0, r2, r5, r6, r8, r9, ip, sp, lr}
 3fc:	00000100 	andeq	r0, r0, r0, lsl #2
 400:	02050000 	andeq	r0, r5, #0
 404:	801009f8 			; <UNDEFINED> instruction: 0x801009f8
 408:	09034c15 	stmdbeq	r3, {r0, r2, r4, sl, fp, lr}
 40c:	6d4b69d6 	vstrvs.16	s13, [fp, #-428]	; 0xfffffe54	; <UNPREDICTABLE>
 410:	70030204 	andvc	r0, r3, r4, lsl #4
 414:	68676966 	stmdavs	r7!, {r1, r2, r5, r6, r8, fp, sp, lr}^
 418:	67e67688 	strbvs	r7, [r6, r8, lsl #13]!
 41c:	d768ad30 			; <UNDEFINED> instruction: 0xd768ad30
 420:	4d675aad 	vstmdbmi	r7!, {s11-s183}
 424:	91936778 	orrsls	r6, r3, r8, ror r7
 428:	4b4c593d 	blmi	1316924 <shift+0x1316924>
 42c:	244a7a03 	strbcs	r7, [sl], #-2563	; 0xfffff5fd
 430:	0c032124 	stfeqs	f2, [r3], {36}	; 0x24
 434:	2f832f4a 	svccs	0x00832f4a
 438:	832f3067 			; <UNDEFINED> instruction: 0x832f3067
 43c:	683e4030 	ldmdavs	lr!, {r4, r5, lr}
 440:	04020067 	streq	r0, [r2], #-103	; 0xffffff99
 444:	02002902 	andeq	r2, r0, #32768	; 0x8000
 448:	3c060104 	stfccs	f0, [r6], {4}
 44c:	68684406 	stmdavs	r8!, {r1, r2, sl, lr}^
 450:	02003e08 	andeq	r3, r0, #8, 28	; 0x80
 454:	002a0204 	eoreq	r0, sl, r4, lsl #4
 458:	06010402 	streq	r0, [r1], -r2, lsl #8
 45c:	2151063c 	cmpcs	r1, ip, lsr r6
 460:	01000702 	tsteq	r0, r2, lsl #14
 464:	00006401 	andeq	r6, r0, r1, lsl #8
 468:	49000200 	stmdbmi	r0, {r9}
 46c:	02000000 	andeq	r0, r0, #0
 470:	0d0efb01 	vstreq	d15, [lr, #-4]
 474:	01010100 	mrseq	r0, (UNDEF: 17)
 478:	00000001 	andeq	r0, r0, r1
 47c:	01000001 	tsteq	r0, r1
 480:	65472f2e 	strbvs	r2, [r7, #-3886]	; 0xfffff0d2
 484:	6172656e 	cmnvs	r2, lr, ror #10
 488:	2f2e006c 	svccs	0x002e006c
 48c:	656e6547 	strbvs	r6, [lr, #-1351]!	; 0xfffffab9
 490:	2f6c6172 	svccs	0x006c6172
 494:	562f2e2e 	strtpl	r2, [pc], -lr, lsr #28
 498:	65697261 	strbvs	r7, [r9, #-609]!	; 0xfffffd9f
 49c:	00007974 	andeq	r7, r0, r4, ror r9
 4a0:	69727473 	ldmdbvs	r2!, {r0, r1, r4, r5, r6, sl, ip, sp, lr}^
 4a4:	632e676e 			; <UNDEFINED> instruction: 0x632e676e
 4a8:	00000100 	andeq	r0, r0, r0, lsl #2
 4ac:	65707974 	ldrbvs	r7, [r0, #-2420]!	; 0xfffff68c
 4b0:	00682e73 	rsbeq	r2, r8, r3, ror lr
 4b4:	00000002 	andeq	r0, r0, r2
 4b8:	74020500 	strvc	r0, [r2], #-1280	; 0xfffffb00
 4bc:	1380100c 	orrne	r1, r0, #12
 4c0:	213d2f67 	teqcs	sp, r7, ror #30
 4c4:	215c3a4b 	cmpcs	ip, fp, asr #20
 4c8:	01000602 	tsteq	r0, r2, lsl #12
 4cc:	00004701 	andeq	r4, r0, r1, lsl #14
 4d0:	2d000200 	sfmcs	f0, 4, [r0, #-0]
 4d4:	02000000 	andeq	r0, r0, #0
 4d8:	0d0efb01 	vstreq	d15, [lr, #-4]
 4dc:	01010100 	mrseq	r0, (UNDEF: 17)
 4e0:	00000001 	andeq	r0, r0, r1
 4e4:	01000001 	tsteq	r0, r1
 4e8:	65472f2e 	strbvs	r2, [r7, #-3886]	; 0xfffff0d2
 4ec:	6172656e 	cmnvs	r2, lr, ror #10
 4f0:	7000006c 	andvc	r0, r0, ip, rrx
 4f4:	746e6972 	strbtvc	r6, [lr], #-2418	; 0xfffff68e
 4f8:	7365745f 	cmnvc	r5, #1593835520	; 0x5f000000
 4fc:	00632e74 	rsbeq	r2, r3, r4, ror lr
 500:	00000001 	andeq	r0, r0, r1
 504:	b2020500 	andlt	r0, r2, #0, 10
 508:	1580100c 	strne	r1, [r0, #12]
 50c:	2221672f 	eorcs	r6, r1, #12320768	; 0xbc0000
 510:	0221672f 	eoreq	r6, r1, #12320768	; 0xbc0000
 514:	01010001 	tsteq	r1, r1
 518:	0000006f 	andeq	r0, r0, pc, rrx
 51c:	00590002 	subseq	r0, r9, r2
 520:	01020000 	mrseq	r0, (UNDEF: 2)
 524:	000d0efb 	strdeq	r0, [sp], -fp
 528:	01010101 	tsteq	r1, r1, lsl #2
 52c:	01000000 	mrseq	r0, (UNDEF: 0)
 530:	2e010000 	cdpcs	0, 0, cr0, cr1, cr0, {0}
 534:	4358452f 	cmpmi	r8, #197132288	; 0xbc00000
 538:	49545045 	ldmdbmi	r4, {r0, r2, r6, ip, lr}^
 53c:	2e004e4f 	cdpcs	14, 0, cr4, cr0, cr15, {2}
 540:	4358452f 	cmpmi	r8, #197132288	; 0xbc00000
 544:	49545045 	ldmdbmi	r4, {r0, r2, r6, ip, lr}^
 548:	2e2f4e4f 	cdpcs	14, 2, cr4, cr15, cr15, {2}
 54c:	61562f2e 	cmpvs	r6, lr, lsr #30
 550:	74656972 	strbtvc	r6, [r5], #-2418	; 0xfffff68e
 554:	74000079 	strvc	r0, [r0], #-121	; 0xffffff87
 558:	2e706172 	mrccs	1, 3, r6, cr0, cr2, {3}
 55c:	00010063 	andeq	r0, r1, r3, rrx
 560:	70797400 	rsbsvc	r7, r9, r0, lsl #8
 564:	682e7365 	stmdavs	lr!, {r0, r2, r5, r6, r8, r9, ip, sp, lr}
 568:	00000200 	andeq	r0, r0, r0, lsl #4
 56c:	6975623c 	ldmdbvs	r5!, {r2, r3, r4, r5, r9, sp, lr}^
 570:	692d746c 	pushvs	{r2, r3, r5, r6, sl, ip, sp, lr}
 574:	00003e6e 	andeq	r3, r0, lr, ror #28
 578:	00000000 	andeq	r0, r0, r0
 57c:	0cda0205 	lfmeq	f0, 2, [sl], {5}
 580:	4c148010 	ldcmi	0, cr8, [r4], {16}
 584:	0302219f 	movweq	r2, #8607	; 0x219f
 588:	48010100 	stmdami	r1, {r8}
 58c:	02000000 	andeq	r0, r0, #0
 590:	00002c00 	andeq	r2, r0, r0, lsl #24
 594:	fb010200 	blx	40d9e <shift+0x40d9e>
 598:	01000d0e 	tsteq	r0, lr, lsl #26
 59c:	00010101 	andeq	r0, r1, r1, lsl #2
 5a0:	00010000 	andeq	r0, r1, r0
 5a4:	2f2e0100 	svccs	0x002e0100
 5a8:	45435845 	strbmi	r5, [r3, #-2117]	; 0xfffff7bb
 5ac:	4f495450 	svcmi	0x00495450
 5b0:	7400004e 	strvc	r0, [r0], #-78	; 0xffffffb2
 5b4:	61706172 	cmnvs	r0, r2, ror r1
 5b8:	532e6d73 			; <UNDEFINED> instruction: 0x532e6d73
 5bc:	00000100 	andeq	r0, r0, r0, lsl #2
 5c0:	02050000 	andeq	r0, r5, #0
 5c4:	80100d00 	andshi	r0, r0, r0, lsl #26
 5c8:	2f2f2f15 	svccs	0x002f2f15
 5cc:	2f2f312f 	svccs	0x002f312f
 5d0:	02022f2f 	andeq	r2, r2, #47, 30	; 0xbc
 5d4:	fc010100 	stc2	1, cr0, [r1], {-0}
 5d8:	02000000 	andeq	r0, r0, #0
 5dc:	0000c700 	andeq	ip, r0, r0, lsl #14
 5e0:	fb010200 	blx	40dea <shift+0x40dea>
 5e4:	01000d0e 	tsteq	r0, lr, lsl #26
 5e8:	00010101 	andeq	r0, r1, r1, lsl #2
 5ec:	00010000 	andeq	r0, r1, r0
 5f0:	682f0100 	stmdavs	pc!, {r8}	; <UNPREDICTABLE>
 5f4:	2f656d6f 	svccs	0x00656d6f
 5f8:	67776374 			; <UNDEFINED> instruction: 0x67776374
 5fc:	6975622d 	ldmdbvs	r5!, {r0, r2, r3, r5, r9, sp, lr}^
 600:	6c73646c 	cfldrdvs	mvd6, [r3], #-432	; 0xfffffe50
 604:	2f657661 	svccs	0x00657661
 608:	6b726f77 	blvs	1c9c3ec <shift+0x1c9c3ec>
 60c:	63617073 	cmnvs	r1, #115	; 0x73
 610:	63742f65 	cmnvs	r4, #404	; 0x194
 614:	6d2d6777 	stcvs	7, cr6, [sp, #-476]!	; 0xfffffe24
 618:	2d656b61 	fstmdbxcs	r5!, {d22-d69}	;@ Deprecated
 61c:	656c6572 	strbvs	r6, [ip, #-1394]!	; 0xfffffa8e
 620:	2f657361 	svccs	0x00657361
 624:	6562616c 	strbvs	r6, [r2, #-364]!	; 0xfffffe94
 628:	6f642f6c 	svcvs	0x00642f6c
 62c:	72656b63 	rsbvc	r6, r5, #101376	; 0x18c00
 630:	7572742d 	ldrbvc	r7, [r2, #-1069]!	; 0xfffffbd3
 634:	2d797473 	cfldrdcs	mvd7, [r9, #-460]!	; 0xfffffe34
 638:	36646d61 	strbtcc	r6, [r4], -r1, ror #26
 63c:	63742d34 	cmnvs	r4, #52, 26	; 0xd00
 640:	622d6777 	eorvs	r6, sp, #31195136	; 0x1dc0000
 644:	646c6975 	strbtvs	r6, [ip], #-2421	; 0xfffff68b
 648:	7261742f 	rsbvc	r7, r1, #788529152	; 0x2f000000
 64c:	2f746567 	svccs	0x00746567
 650:	2d6d7261 	sfmcs	f7, 2, [sp, #-388]!	; 0xfffffe7c
 654:	756e696c 	strbvc	r6, [lr, #-2412]!	; 0xfffff694
 658:	6e672d78 	mcrvs	13, 3, r2, cr7, cr8, {3}
 65c:	62616575 	rsbvs	r6, r1, #490733568	; 0x1d400000
 660:	2f666869 	svccs	0x00666869
 664:	70616e73 	rsbvc	r6, r1, r3, ror lr
 668:	746f6873 	strbtvc	r6, [pc], #-2163	; 670 <shift+0x670>
 66c:	63672f73 	cmnvs	r7, #460	; 0x1cc
 670:	696c2d63 	stmdbvs	ip!, {r0, r1, r5, r6, r8, sl, fp, sp}^
 674:	6f72616e 	svcvs	0x0072616e
 678:	322e362d 	eorcc	r3, lr, #47185920	; 0x2d00000
 67c:	3130322d 	teqcc	r0, sp, lsr #4
 680:	31312e36 	teqcc	r1, r6, lsr lr
 684:	62696c2f 	rsbvs	r6, r9, #12032	; 0x2f00
 688:	2f636367 	svccs	0x00636367
 68c:	666e6f63 	strbtvs	r6, [lr], -r3, ror #30
 690:	612f6769 			; <UNDEFINED> instruction: 0x612f6769
 694:	00006d72 	andeq	r6, r0, r2, ror sp
 698:	3162696c 	cmncc	r2, ip, ror #18
 69c:	636e7566 	cmnvs	lr, #427819008	; 0x19800000
 6a0:	00532e73 	subseq	r2, r3, r3, ror lr
 6a4:	00000001 	andeq	r0, r0, r1
 6a8:	28020500 	stmdacs	r2, {r8, sl}
 6ac:	0380100d 	orreq	r1, r0, #13
 6b0:	210107e6 	smlattcs	r1, r6, r7, r0
 6b4:	212f2121 			; <UNDEFINED> instruction: 0x212f2121
 6b8:	0230212f 	eorseq	r2, r0, #-1073741813	; 0xc000000b
 6bc:	21140291 			; <UNDEFINED> instruction: 0x21140291
 6c0:	21212122 			; <UNDEFINED> instruction: 0x21212122
 6c4:	242f4c22 	strtcs	r4, [pc], #-3106	; 6cc <shift+0x6cc>
 6c8:	21581603 	cmpcs	r8, r3, lsl #12
 6cc:	2f2f2f21 	svccs	0x002f2f21
 6d0:	01022f2f 	tsteq	r2, pc, lsr #30
 6d4:	e2010100 	and	r0, r1, #0, 2
 6d8:	02000000 	andeq	r0, r0, #0
 6dc:	0000c700 	andeq	ip, r0, r0, lsl #14
 6e0:	fb010200 	blx	40eea <shift+0x40eea>
 6e4:	01000d0e 	tsteq	r0, lr, lsl #26
 6e8:	00010101 	andeq	r0, r1, r1, lsl #2
 6ec:	00010000 	andeq	r0, r1, r0
 6f0:	682f0100 	stmdavs	pc!, {r8}	; <UNPREDICTABLE>
 6f4:	2f656d6f 	svccs	0x00656d6f
 6f8:	67776374 			; <UNDEFINED> instruction: 0x67776374
 6fc:	6975622d 	ldmdbvs	r5!, {r0, r2, r3, r5, r9, sp, lr}^
 700:	6c73646c 	cfldrdvs	mvd6, [r3], #-432	; 0xfffffe50
 704:	2f657661 	svccs	0x00657661
 708:	6b726f77 	blvs	1c9c4ec <shift+0x1c9c4ec>
 70c:	63617073 	cmnvs	r1, #115	; 0x73
 710:	63742f65 	cmnvs	r4, #404	; 0x194
 714:	6d2d6777 	stcvs	7, cr6, [sp, #-476]!	; 0xfffffe24
 718:	2d656b61 	fstmdbxcs	r5!, {d22-d69}	;@ Deprecated
 71c:	656c6572 	strbvs	r6, [ip, #-1394]!	; 0xfffffa8e
 720:	2f657361 	svccs	0x00657361
 724:	6562616c 	strbvs	r6, [r2, #-364]!	; 0xfffffe94
 728:	6f642f6c 	svcvs	0x00642f6c
 72c:	72656b63 	rsbvc	r6, r5, #101376	; 0x18c00
 730:	7572742d 	ldrbvc	r7, [r2, #-1069]!	; 0xfffffbd3
 734:	2d797473 	cfldrdcs	mvd7, [r9, #-460]!	; 0xfffffe34
 738:	36646d61 	strbtcc	r6, [r4], -r1, ror #26
 73c:	63742d34 	cmnvs	r4, #52, 26	; 0xd00
 740:	622d6777 	eorvs	r6, sp, #31195136	; 0x1dc0000
 744:	646c6975 	strbtvs	r6, [ip], #-2421	; 0xfffff68b
 748:	7261742f 	rsbvc	r7, r1, #788529152	; 0x2f000000
 74c:	2f746567 	svccs	0x00746567
 750:	2d6d7261 	sfmcs	f7, 2, [sp, #-388]!	; 0xfffffe7c
 754:	756e696c 	strbvc	r6, [lr, #-2412]!	; 0xfffff694
 758:	6e672d78 	mcrvs	13, 3, r2, cr7, cr8, {3}
 75c:	62616575 	rsbvs	r6, r1, #490733568	; 0x1d400000
 760:	2f666869 	svccs	0x00666869
 764:	70616e73 	rsbvc	r6, r1, r3, ror lr
 768:	746f6873 	strbtvc	r6, [pc], #-2163	; 770 <shift+0x770>
 76c:	63672f73 	cmnvs	r7, #460	; 0x1cc
 770:	696c2d63 	stmdbvs	ip!, {r0, r1, r5, r6, r8, sl, fp, sp}^
 774:	6f72616e 	svcvs	0x0072616e
 778:	322e362d 	eorcc	r3, lr, #47185920	; 0x2d00000
 77c:	3130322d 	teqcc	r0, sp, lsr #4
 780:	31312e36 	teqcc	r1, r6, lsr lr
 784:	62696c2f 	rsbvs	r6, r9, #12032	; 0x2f00
 788:	2f636367 	svccs	0x00636367
 78c:	666e6f63 	strbtvs	r6, [lr], -r3, ror #30
 790:	612f6769 			; <UNDEFINED> instruction: 0x612f6769
 794:	00006d72 	andeq	r6, r0, r2, ror sp
 798:	3162696c 	cmncc	r2, ip, ror #18
 79c:	636e7566 	cmnvs	lr, #427819008	; 0x19800000
 7a0:	00532e73 	subseq	r2, r3, r3, ror lr
 7a4:	00000001 	andeq	r0, r0, r1
 7a8:	a0020500 	andge	r0, r2, r0, lsl #10
 7ac:	0380100f 	orreq	r1, r0, #15
 7b0:	03010ac4 	movweq	r0, #6852	; 0x1ac4
 7b4:	2f2f2009 	svccs	0x002f2009
 7b8:	01000102 	tsteq	r0, r2, lsl #2
 7bc:	Address 0x00000000000007bc is out of bounds.


Disassembly of section .debug_info:

00000000 <.debug_info>:
       0:	00000065 	andeq	r0, r0, r5, rrx
       4:	00000002 	andeq	r0, r0, r2
       8:	01040000 	mrseq	r0, (UNDEF: 4)
       c:	00000000 	andeq	r0, r0, r0
      10:	80100000 	andshi	r0, r0, r0
      14:	80100070 	andshi	r0, r0, r0, ror r0
      18:	654b2f2e 	strbvs	r2, [fp, #-3886]	; 0xfffff0d2
      1c:	6c656e72 	stclvs	14, cr6, [r5], #-456	; 0xfffffe38
      20:	6f6f622f 	svcvs	0x006f622f
      24:	616f6c74 	smcvs	63172	; 0xf6c4
      28:	2e726564 	cdpcs	5, 7, cr6, cr2, cr4, {3}
      2c:	6d2f0053 	stcvs	0, cr0, [pc, #-332]!	; fffffee8 <Kernel_end+0x7fbffee8>
      30:	632f746e 			; <UNDEFINED> instruction: 0x632f746e
      34:	6573552f 	ldrbvs	r5, [r3, #-1327]!	; 0xfffffad1
      38:	322f7372 	eorcc	r7, pc, #-939524095	; 0xc8000001
      3c:	34353238 	ldrtcc	r3, [r5], #-568	; 0xfffffdc8
      40:	7365442f 	cmnvc	r5, #788529152	; 0x2f000000
      44:	706f746b 	rsbvc	r7, pc, fp, ror #8
      48:	6c69662f 	stclvs	6, cr6, [r9], #-188	; 0xffffff44
      4c:	72502f65 	subsvc	r2, r0, #404	; 0x194
      50:	6172676f 	cmnvs	r2, pc, ror #14
      54:	534f2f6d 	movtpl	r2, #65389	; 0xff6d
      58:	554e4700 	strbpl	r4, [lr, #-1792]	; 0xfffff900
      5c:	20534120 	subscs	r4, r3, r0, lsr #2
      60:	37322e32 			; <UNDEFINED> instruction: 0x37322e32
      64:	0100302e 	tsteq	r0, lr, lsr #32
      68:	00019080 	andeq	r9, r1, r0, lsl #1
      6c:	14000400 	strne	r0, [r0], #-1024	; 0xfffffc00
      70:	04000000 	streq	r0, [r0], #-0
      74:	00008701 	andeq	r8, r0, r1, lsl #14
      78:	006c0c00 	rsbeq	r0, ip, r0, lsl #24
      7c:	002d0000 	eoreq	r0, sp, r0
      80:	00700000 	rsbseq	r0, r0, r0
      84:	00f08010 	rscseq	r8, r0, r0, lsl r0
      88:	005f0000 	subseq	r0, pc, r0
      8c:	cc020000 	stcgt	0, cr0, [r2], {-0}
      90:	03000001 	movweq	r0, #1
      94:	00003001 	andeq	r3, r0, r1
      98:	07040300 	streq	r0, [r4, -r0, lsl #6]
      9c:	00000189 	andeq	r0, r0, r9, lsl #3
      a0:	0c080103 	stfeqs	f0, [r8], {3}
      a4:	03000000 	movweq	r0, #0
      a8:	001a0702 	andseq	r0, sl, r2, lsl #14
      ac:	61020000 	mrsvs	r0, (UNDEF: 2)
      b0:	03000000 	movweq	r0, #0
      b4:	00002504 	andeq	r2, r0, r4, lsl #10
      b8:	07040300 	streq	r0, [r4, -r0, lsl #6]
      bc:	00000106 	andeq	r0, r0, r6, lsl #2
      c0:	00006204 	andeq	r6, r0, r4, lsl #4
      c4:	00006200 	andeq	r6, r0, r0, lsl #4
      c8:	03000500 	movweq	r0, #1280	; 0x500
      cc:	00150801 	andseq	r0, r5, r1, lsl #16
      d0:	7c060000 	stcvc	0, cr0, [r6], {-0}
      d4:	02000000 	andeq	r0, r0, #0
      d8:	00005709 	andeq	r5, r0, r9, lsl #14
      dc:	00000700 	andeq	r0, r0, r0, lsl #14
      e0:	1e020000 	cdpne	0, 0, cr0, cr2, cr0, {0}
      e4:	8010012c 	andshi	r0, r0, ip, lsr #2
      e8:	00000034 	andeq	r0, r0, r4, lsr r0
      ec:	00ce9c01 	sbceq	r9, lr, r1, lsl #24
      f0:	74080000 	strvc	r0, [r8], #-0
      f4:	02006274 	andeq	r6, r0, #116, 4	; 0x40000007
      f8:	0000ce1e 	andeq	ip, r0, lr, lsl lr
      fc:	6c910200 	lfmvs	f0, 4, [r1], {0}
     100:	00617608 	rsbeq	r7, r1, r8, lsl #12
     104:	00251e02 	eoreq	r1, r5, r2, lsl #28
     108:	91020000 	mrsls	r0, (UNDEF: 2)
     10c:	61700868 	cmnvs	r0, r8, ror #16
     110:	251e0200 	ldrcs	r0, [lr, #-512]	; 0xfffffe00
     114:	02000000 	andeq	r0, r0, #0
     118:	0f096491 	svceq	0x00096491
     11c:	02000001 	andeq	r0, r0, #1
     120:	0000251e 	andeq	r2, r0, lr, lsl r5
     124:	60910200 	addsvs	r0, r1, r0, lsl #4
     128:	0001250a 	andeq	r2, r1, sl, lsl #10
     12c:	d4200200 	strtle	r0, [r0], #-512	; 0xfffffe00
     130:	02000000 	andeq	r0, r0, #0
     134:	0b007491 	bleq	1d380 <shift+0x1d380>
     138:	00004504 	andeq	r4, r0, r4, lsl #10
     13c:	05040c00 	streq	r0, [r4, #-3072]	; 0xfffff400
     140:	00746e69 	rsbseq	r6, r4, r9, ror #28
     144:	0000fc0d 	andeq	pc, r0, sp, lsl #24
     148:	e2130200 	ands	r0, r3, #0, 4
     14c:	4a801000 	bmi	fe004154 <Kernel_end+0x7dc04154>
     150:	01000000 	mrseq	r0, (UNDEF: 0)
     154:	00010b9c 	muleq	r1, ip, fp
     158:	74740e00 	ldrbtvc	r0, [r4], #-3584	; 0xfffff200
     15c:	15020062 	strne	r0, [r2, #-98]	; 0xffffff9e
     160:	000000ce 	andeq	r0, r0, lr, asr #1
     164:	0e709102 	expeqs	f1, f2
     168:	16020073 			; <UNDEFINED> instruction: 0x16020073
     16c:	00000045 	andeq	r0, r0, r5, asr #32
     170:	00749102 	rsbseq	r9, r4, r2, lsl #2
     174:	0000670f 	andeq	r6, r0, pc, lsl #14
     178:	d40b0200 	strle	r0, [fp], #-512	; 0xfffffe00
     17c:	c0000000 	andgt	r0, r0, r0
     180:	22801000 	addcs	r1, r0, #0
     184:	01000000 	mrseq	r0, (UNDEF: 0)
     188:	0001439c 	muleq	r1, ip, r3
     18c:	012b1000 			; <UNDEFINED> instruction: 0x012b1000
     190:	0e020000 	cdpeq	0, 0, cr0, cr2, cr0, {0}
     194:	000000d4 	ldrdeq	r0, [r0], -r4
     198:	00000135 	andeq	r0, r0, r5, lsr r1
     19c:	58120011 	ldmdapl	r2, {r0, r4}
     1a0:	02000000 	andeq	r0, r0, #0
     1a4:	0000d40f 	andeq	sp, r0, pc, lsl #8
     1a8:	00001100 	andeq	r1, r0, r0, lsl #2
     1ac:	00013213 	andeq	r3, r1, r3, lsl r2
     1b0:	a0110100 	andsge	r0, r1, r0, lsl #2
     1b4:	20801000 	addcs	r1, r0, r0
     1b8:	01000000 	mrseq	r0, (UNDEF: 0)
     1bc:	0001679c 	muleq	r1, ip, r7
     1c0:	022f0900 	eoreq	r0, pc, #0, 18
     1c4:	11010000 	mrsne	r0, (UNDEF: 1)
     1c8:	00000025 	andeq	r0, r0, r5, lsr #32
     1cc:	00749102 	rsbseq	r9, r4, r2, lsl #2
     1d0:	00011414 	andeq	r1, r1, r4, lsl r4
     1d4:	70030100 	andvc	r0, r3, r0, lsl #2
     1d8:	30801000 	addcc	r1, r0, r0
     1dc:	01000000 	mrseq	r0, (UNDEF: 0)
     1e0:	03c9099c 	biceq	r0, r9, #156, 18	; 0x270000
     1e4:	03010000 	movweq	r0, #4096	; 0x1000
     1e8:	00000025 	andeq	r0, r0, r5, lsr #32
     1ec:	0e6c9102 	lgneqe	f1, f2
     1f0:	05010069 	streq	r0, [r1, #-105]	; 0xffffff97
     1f4:	00000025 	andeq	r0, r0, r5, lsr #32
     1f8:	00749102 	rsbseq	r9, r4, r2, lsl #2
     1fc:	00021900 	andeq	r1, r2, r0, lsl #18
     200:	52000400 	andpl	r0, r0, #0, 8
     204:	04000001 	streq	r0, [r0], #-1
     208:	00008701 	andeq	r8, r0, r1, lsl #14
     20c:	013d0c00 	teqeq	sp, r0, lsl #24
     210:	002d0000 	eoreq	r0, sp, r0
     214:	01600000 	cmneq	r0, r0
     218:	03ca8010 	biceq	r8, sl, #16
     21c:	00f00000 	rscseq	r0, r0, r0
     220:	04020000 	streq	r0, [r2], #-0
     224:	00018907 	andeq	r8, r1, r7, lsl #18
     228:	07040200 	streq	r0, [r4, -r0, lsl #4]
     22c:	00000106 	andeq	r0, r0, r6, lsl #2
     230:	0c080102 	stfeqs	f0, [r8], {2}
     234:	03000000 	movweq	r0, #0
     238:	00000169 	andeq	r0, r0, r9, ror #2
     23c:	00450601 	subeq	r0, r5, r1, lsl #12
     240:	04040000 	streq	r0, [r4], #-0
     244:	0000004b 	andeq	r0, r0, fp, asr #32
     248:	15080102 	strne	r0, [r8, #-258]	; 0xfffffefe
     24c:	05000000 	streq	r0, [r0, #-0]
     250:	0000004b 	andeq	r0, r0, fp, asr #32
     254:	00003306 	andeq	r3, r0, r6, lsl #6
     258:	00006700 	andeq	r6, r0, r0, lsl #14
     25c:	002c0700 	eoreq	r0, ip, r0, lsl #14
     260:	000f0000 	andeq	r0, pc, r0
     264:	0001a908 	andeq	sl, r1, r8, lsl #18
     268:	57110100 	ldrpl	r0, [r1, -r0, lsl #2]
     26c:	05000000 	streq	r0, [r0, #-0]
     270:	10113803 	andsne	r3, r1, r3, lsl #16
     274:	01b10980 			; <UNDEFINED> instruction: 0x01b10980
     278:	91010000 	mrsls	r0, (UNDEF: 1)
     27c:	0000008d 	andeq	r0, r0, sp, lsl #1
     280:	80100434 	andshi	r0, r0, r4, lsr r4
     284:	000000f6 	strdeq	r0, [r0], -r6
     288:	040a9c01 	streq	r9, [sl], #-3073	; 0xfffff3ff
     28c:	746e6905 	strbtvc	r6, [lr], #-2309	; 0xfffff6fb
     290:	01620b00 	cmneq	r2, r0, lsl #22
     294:	7c010000 	stcvc	0, cr0, [r1], {-0}
     298:	0000008d 	andeq	r0, r0, sp, lsl #1
     29c:	80100408 	andshi	r0, r0, r8, lsl #8
     2a0:	0000002c 	andeq	r0, r0, ip, lsr #32
     2a4:	00ca9c01 	sbceq	r9, sl, r1, lsl #24
     2a8:	660c0000 	strvs	r0, [ip], -r0
     2ac:	0100746d 	tsteq	r0, sp, ror #8
     2b0:	0000ca7c 	andeq	ip, r0, ip, ror sl
     2b4:	70910200 	addsvc	r0, r1, r0, lsl #4
     2b8:	70610e0d 	rsbvc	r0, r1, sp, lsl #28
     2bc:	3a7e0100 	bcc	1f806c4 <shift+0x1f806c4>
     2c0:	02000000 	andeq	r0, r0, #0
     2c4:	04006491 	streq	r6, [r0], #-1169	; 0xfffffb6f
     2c8:	00005204 	andeq	r5, r0, r4, lsl #4
     2cc:	015e0f00 	cmpeq	lr, r0, lsl #30
     2d0:	43010000 	movwmi	r0, #4096	; 0x1000
     2d4:	0000008d 	andeq	r0, r0, sp, lsl #1
     2d8:	80100274 	andshi	r0, r0, r4, ror r2
     2dc:	00000194 	muleq	r0, r4, r1
     2e0:	01219c01 			; <UNDEFINED> instruction: 0x01219c01
     2e4:	660c0000 	strvs	r0, [ip], -r0
     2e8:	0100746d 	tsteq	r0, sp, ror #8
     2ec:	0000ca43 	andeq	ip, r0, r3, asr #20
     2f0:	6c910200 	lfmvs	f0, 4, [r1], {0}
     2f4:	0070610c 	rsbseq	r6, r0, ip, lsl #2
     2f8:	003a4301 	eorseq	r4, sl, r1, lsl #6
     2fc:	91020000 	mrsls	r0, (UNDEF: 2)
     300:	01761068 	cmneq	r6, r8, rrx
     304:	45010000 	strmi	r0, [r1, #-0]
     308:	0000004b 	andeq	r0, r0, fp, asr #32
     30c:	10779102 	rsbsne	r9, r7, r2, lsl #2
     310:	0000017b 	andeq	r0, r0, fp, ror r1
     314:	008d4601 	addeq	r4, sp, r1, lsl #12
     318:	91020000 	mrsls	r0, (UNDEF: 2)
     31c:	500f0070 	andpl	r0, pc, r0, ror r0	; <UNPREDICTABLE>
     320:	01000001 	tsteq	r0, r1
     324:	00008d22 	andeq	r8, r0, r2, lsr #26
     328:	1001a200 	andne	sl, r1, r0, lsl #4
     32c:	0000d280 	andeq	sp, r0, r0, lsl #5
     330:	b69c0100 	ldrlt	r0, [ip], r0, lsl #2
     334:	0c000001 	stceq	0, cr0, [r0], {1}
     338:	2201006e 	andcs	r0, r1, #110	; 0x6e
     33c:	000001b6 			; <UNDEFINED> instruction: 0x000001b6
     340:	7fa49103 	svcvc	0x00a49103
     344:	00017111 	andeq	r7, r1, r1, lsl r1
     348:	8d220100 	stfhis	f0, [r2, #-0]
     34c:	03000000 	movweq	r0, #0
     350:	117fa091 			; <UNDEFINED> instruction: 0x117fa091
     354:	00000176 	andeq	r0, r0, r6, ror r1
     358:	004b2201 	subeq	r2, fp, r1, lsl #4
     35c:	91030000 	mrsls	r0, (UNDEF: 3)
     360:	7b117f9f 	blvc	4601e4 <shift+0x4601e4>
     364:	01000001 	tsteq	r0, r1
     368:	00008d22 	andeq	r8, r0, r2, lsr #26
     36c:	98910300 	ldmls	r1, {r8, r9}
     370:	006d0e7f 	rsbeq	r0, sp, pc, ror lr
     374:	01bd2401 			; <UNDEFINED> instruction: 0x01bd2401
     378:	91020000 	mrsls	r0, (UNDEF: 2)
     37c:	75620e74 	strbvc	r0, [r2, #-3700]!	; 0xfffff18c
     380:	25010066 	strcs	r0, [r1, #-102]	; 0xffffff9a
     384:	000001c4 	andeq	r0, r0, r4, asr #3
     388:	7fa89103 	svcvc	0x00a89103
     38c:	0100730e 	tsteq	r0, lr, lsl #6
     390:	00004525 	andeq	r4, r0, r5, lsr #10
     394:	70910200 	addsvc	r0, r1, r0, lsl #4
     398:	00015810 	andeq	r5, r1, r0, lsl r8
     39c:	8d260100 	stfhis	f0, [r6, #-0]
     3a0:	02000000 	andeq	r0, r0, #0
     3a4:	690e6c91 	stmdbvs	lr, {r0, r4, r7, sl, fp, sp, lr}
     3a8:	8d260100 	stfhis	f0, [r6, #-0]
     3ac:	02000000 	andeq	r0, r0, #0
     3b0:	02006891 	andeq	r6, r0, #9502720	; 0x910000
     3b4:	01a00504 	lsleq	r0, r4, #10
     3b8:	04020000 	streq	r0, [r2], #-0
     3bc:	00018407 	andeq	r8, r1, r7, lsl #8
     3c0:	004b0600 	subeq	r0, fp, r0, lsl #12
     3c4:	01d40000 	bicseq	r0, r4, r0
     3c8:	2c070000 	stccs	0, cr0, [r7], {-0}
     3cc:	3f000000 	svccc	0x00000000
     3d0:	019b0f00 	orrseq	r0, fp, r0, lsl #30
     3d4:	1b010000 	blne	403dc <shift+0x403dc>
     3d8:	0000008d 	andeq	r0, r0, sp, lsl #1
     3dc:	80100178 	andshi	r0, r0, r8, ror r1
     3e0:	0000002a 	andeq	r0, r0, sl, lsr #32
     3e4:	01fa9c01 	mvnseq	r9, r1, lsl #24
     3e8:	730c0000 	movwvc	r0, #49152	; 0xc000
     3ec:	ca1b0100 	bgt	6c07f4 <shift+0x6c07f4>
     3f0:	02000000 	andeq	r0, r0, #0
     3f4:	12007491 	andne	r7, r0, #-1862270976	; 0x91000000
     3f8:	00000196 	muleq	r0, r6, r1
     3fc:	008d1501 	addeq	r1, sp, r1, lsl #10
     400:	01600000 	cmneq	r0, r0
     404:	00188010 	andseq	r8, r8, r0, lsl r0
     408:	9c010000 	stcls	0, cr0, [r1], {-0}
     40c:	0100630c 	tsteq	r0, ip, lsl #6
     410:	00008d15 	andeq	r8, r0, r5, lsl sp
     414:	74910200 	ldrvc	r0, [r1], #512	; 0x200
     418:	02060000 	andeq	r0, r6, #0
     41c:	00040000 	andeq	r0, r4, r0
     420:	00000265 	andeq	r0, r0, r5, ror #4
     424:	00870104 	addeq	r0, r7, r4, lsl #2
     428:	fe0c0000 	cdp2	0, 0, cr0, cr12, cr0, {0}
     42c:	2d000001 	stccs	0, cr0, [r0, #-4]
     430:	2c000000 	stccs	0, cr0, [r0], {-0}
     434:	22801005 	addcs	r1, r0, #5
     438:	be000002 	cdplt	0, 0, cr0, cr0, cr2, {0}
     43c:	02000001 	andeq	r0, r0, #1
     440:	01890704 	orreq	r0, r9, r4, lsl #14
     444:	04020000 	streq	r0, [r2], #-0
     448:	00010607 	andeq	r0, r1, r7, lsl #12
     44c:	08010200 	stmdaeq	r1, {r9}
     450:	0000000c 	andeq	r0, r0, ip
     454:	00003303 	andeq	r3, r0, r3, lsl #6
     458:	00004a00 	andeq	r4, r0, r0, lsl #20
     45c:	002c0400 	eoreq	r0, ip, r0, lsl #8
     460:	00ff0000 	rscseq	r0, pc, r0
     464:	00022d05 	andeq	r2, r2, r5, lsl #26
     468:	3a140100 	bcc	500870 <shift+0x500870>
     46c:	05000000 	streq	r0, [r0, #-0]
     470:	10114803 	andsne	r4, r1, r3, lsl #16
     474:	01c80680 	biceq	r0, r8, r0, lsl #13
     478:	d7010000 	strle	r0, [r1, -r0]
     47c:	00000025 	andeq	r0, r0, r5, lsr #32
     480:	8010072a 	andshi	r0, r0, sl, lsr #14
     484:	00000024 	andeq	r0, r0, r4, lsr #32
     488:	00849c01 	addeq	r9, r4, r1, lsl #24
     48c:	73070000 	movwvc	r0, #28672	; 0x7000
     490:	01007274 	tsteq	r0, r4, ror r2
     494:	000084d9 	ldrdeq	r8, [r0], -r9
     498:	94910300 	ldrls	r0, [r1], #768	; 0x300
     49c:	9403007f 	strls	r0, [r3], #-127	; 0xffffff81
     4a0:	94000000 	strls	r0, [r0], #-0
     4a4:	04000000 	streq	r0, [r0], #-0
     4a8:	0000002c 	andeq	r0, r0, ip, lsr #32
     4ac:	01020063 	tsteq	r2, r3, rrx
     4b0:	00001508 	andeq	r1, r0, r8, lsl #10
     4b4:	00940800 	addseq	r0, r4, r0, lsl #16
     4b8:	c0060000 	andgt	r0, r6, r0
     4bc:	01000001 	tsteq	r0, r1
     4c0:	0000c9c6 	andeq	ip, r0, r6, asr #19
     4c4:	10070600 	andne	r0, r7, r0, lsl #12
     4c8:	00002480 	andeq	r2, r0, r0, lsl #9
     4cc:	c99c0100 	ldmibgt	ip, {r8}
     4d0:	07000000 	streq	r0, [r0, -r0]
     4d4:	00727473 	rsbseq	r7, r2, r3, ror r4
     4d8:	0084c801 	addeq	ip, r4, r1, lsl #16
     4dc:	91030000 	mrsls	r0, (UNDEF: 3)
     4e0:	09007f94 	stmdbeq	r0, {r2, r4, r7, r8, r9, sl, fp, ip, sp, lr}
     4e4:	6e690504 	cdpvs	5, 6, cr0, cr9, cr4, {0}
     4e8:	14060074 	strne	r0, [r6], #-116	; 0xffffff8c
     4ec:	01000002 	tsteq	r0, r2
     4f0:	0001259e 	muleq	r1, lr, r5
     4f4:	10069c00 	andne	r9, r6, r0, lsl #24
     4f8:	00006a80 	andeq	r6, r0, r0, lsl #21
     4fc:	259c0100 	ldrcs	r0, [ip, #256]	; 0x100
     500:	0a000001 	beq	50c <shift+0x50c>
     504:	9e010073 	mcrls	0, 0, r0, cr1, cr3, {3}
     508:	00000125 	andeq	r0, r0, r5, lsr #2
     50c:	076c9102 	strbeq	r9, [ip, -r2, lsl #2]!
     510:	a0010069 	andge	r0, r1, r9, rrx
     514:	000000c9 	andeq	r0, r0, r9, asr #1
     518:	07749102 	ldrbeq	r9, [r4, -r2, lsl #2]!
     51c:	a1010063 	tstge	r1, r3, rrx
     520:	00000094 	muleq	r0, r4, r0
     524:	0b739102 	bleq	1ce4934 <shift+0x1ce4934>
     528:	801006a8 	andshi	r0, r0, r8, lsr #13
     52c:	00000052 	andeq	r0, r0, r2, asr r0
     530:	0002190c 	andeq	r1, r2, ip, lsl #18
     534:	c9a50100 	stmibgt	r5!, {r8}
     538:	0d000000 	stceq	0, cr0, [r0, #-0]
     53c:	0e000000 	cdpeq	0, 0, cr0, cr0, cr0, {0}
     540:	00009404 	andeq	r9, r0, r4, lsl #8
     544:	01e60600 	mvneq	r0, r0, lsl #12
     548:	8c010000 	stchi	0, cr0, [r1], {-0}
     54c:	0000016e 	andeq	r0, r0, lr, ror #2
     550:	80100660 	andshi	r0, r0, r0, ror #12
     554:	0000003c 	andeq	r0, r0, ip, lsr r0
     558:	016e9c01 	cmneq	lr, r1, lsl #24
     55c:	630a0000 	movwvs	r0, #40960	; 0xa000
     560:	8c010070 	stchi	0, cr0, [r1], {112}	; 0x70
     564:	00000175 	andeq	r0, r0, r5, ror r1
     568:	0f749102 	svceq	0x00749102
     56c:	00000228 	andeq	r0, r0, r8, lsr #4
     570:	017b8c01 	cmneq	fp, r1, lsl #24
     574:	91020000 	mrsls	r0, (UNDEF: 2)
     578:	01710f70 	cmneq	r1, r0, ror pc
     57c:	8c010000 	stchi	0, cr0, [r1], {-0}
     580:	00000025 	andeq	r0, r0, r5, lsr #32
     584:	006c9102 	rsbeq	r9, ip, r2, lsl #2
     588:	a0050402 	andge	r0, r5, r2, lsl #8
     58c:	0e000001 	cdpeq	0, 0, cr0, cr0, cr1, {0}
     590:	00009b04 	andeq	r9, r0, r4, lsl #22
     594:	25040e00 	strcs	r0, [r4, #-3584]	; 0xfffff200
     598:	06000001 	streq	r0, [r0], -r1
     59c:	000001d1 	ldrdeq	r0, [r0], -r1
     5a0:	01e06401 	mvneq	r6, r1, lsl #8
     5a4:	055e0000 	ldrbeq	r0, [lr, #-0]
     5a8:	01028010 	tsteq	r2, r0, lsl r0
     5ac:	9c010000 	stcls	0, cr0, [r1], {-0}
     5b0:	000001e0 	andeq	r0, r0, r0, ror #3
     5b4:	0070630a 	rsbseq	r6, r0, sl, lsl #6
     5b8:	01756401 	cmneq	r5, r1, lsl #8
     5bc:	91020000 	mrsls	r0, (UNDEF: 2)
     5c0:	02280f6c 	eoreq	r0, r8, #108, 30	; 0x1b0
     5c4:	64010000 	strvs	r0, [r1], #-0
     5c8:	0000017b 	andeq	r0, r0, fp, ror r1
     5cc:	0f689102 	svceq	0x00689102
     5d0:	00000171 	andeq	r0, r0, r1, ror r1
     5d4:	00256401 	eoreq	r6, r5, r1, lsl #8
     5d8:	91020000 	mrsls	r0, (UNDEF: 2)
     5dc:	02211064 	eoreq	r1, r1, #100	; 0x64
     5e0:	66010000 	strvs	r0, [r1], -r0
     5e4:	000001e0 	andeq	r0, r0, r0, ror #3
     5e8:	10749102 	rsbsne	r9, r4, r2, lsl #2
     5ec:	000001e0 	andeq	r0, r0, r0, ror #3
     5f0:	01e06601 	mvneq	r6, r1, lsl #12
     5f4:	91020000 	mrsls	r0, (UNDEF: 2)
     5f8:	04020070 	streq	r0, [r2], #-112	; 0xffffff90
     5fc:	00018407 	andeq	r8, r1, r7, lsl #8
     600:	01f41100 	mvnseq	r1, r0, lsl #2
     604:	4d010000 	stcmi	0, cr0, [r1, #-0]
     608:	00000033 	andeq	r0, r0, r3, lsr r0
     60c:	8010052c 	andshi	r0, r0, ip, lsr #10
     610:	00000032 	andeq	r0, r0, r2, lsr r0
     614:	630a9c01 	movwvs	r9, #44033	; 0xac01
     618:	334d0100 	movtcc	r0, #53504	; 0xd100
     61c:	02000000 	andeq	r0, r0, #0
     620:	00007791 	muleq	r0, r1, r7
     624:	00000228 	andeq	r0, r0, r8, lsr #4
     628:	03510004 	cmpeq	r1, #4
     62c:	01040000 	mrseq	r0, (UNDEF: 4)
     630:	00000087 	andeq	r0, r0, r7, lsl #1
     634:	0002880c 	andeq	r8, r2, ip, lsl #16
     638:	00002d00 	andeq	r2, r0, r0, lsl #26
     63c:	10074e00 	andne	r4, r7, r0, lsl #28
     640:	00019680 	andeq	r9, r1, r0, lsl #13
     644:	00027a00 	andeq	r7, r2, r0, lsl #20
     648:	02bc0200 	adcseq	r0, ip, #0, 4
     64c:	0001120a 	andeq	r1, r1, sl, lsl #4
     650:	027e0300 	rsbseq	r0, lr, #0, 6
     654:	0c020000 	stceq	0, cr0, [r2], {-0}
     658:	00000119 	andeq	r0, r0, r9, lsl r1
     65c:	02730300 	rsbseq	r0, r3, #0, 6
     660:	0d020000 	stceq	0, cr0, [r2, #-0]
     664:	0000011e 	andeq	r0, r0, lr, lsl r1
     668:	02f90304 	rscseq	r0, r9, #4, 6	; 0x10000000
     66c:	0e020000 	cdpeq	0, 0, cr0, cr2, cr0, {0}
     670:	00000119 	andeq	r0, r0, r9, lsl r1
     674:	03290340 			; <UNDEFINED> instruction: 0x03290340
     678:	0f020000 	svceq	0x00020000
     67c:	0000011e 	andeq	r0, r0, lr, lsl r1
     680:	02a00344 	adceq	r0, r0, #68, 6	; 0x10000001
     684:	10020000 	andne	r0, r2, r0
     688:	00000119 	andeq	r0, r0, r9, lsl r1
     68c:	02a50380 	adceq	r0, r5, #128, 6
     690:	11020000 	mrsne	r0, (UNDEF: 2)
     694:	00000119 	andeq	r0, r0, r9, lsl r1
     698:	02aa0384 	adceq	r0, sl, #132, 6	; 0x10000002
     69c:	12020000 	andne	r0, r2, #0
     6a0:	00000119 	andeq	r0, r0, r9, lsl r1
     6a4:	02af0388 	adceq	r0, pc, #136, 6	; 0x20000002
     6a8:	13020000 	movwne	r0, #8192	; 0x2000
     6ac:	00000119 	andeq	r0, r0, r9, lsl r1
     6b0:	0283038c 	addeq	r0, r3, #140, 6	; 0x30000002
     6b4:	14020000 	strne	r0, [r2], #-0
     6b8:	00000119 	andeq	r0, r0, r9, lsl r1
     6bc:	033e0390 	teqeq	lr, #144, 6	; 0x40000002
     6c0:	15020000 	strne	r0, [r2, #-0]
     6c4:	00000119 	andeq	r0, r0, r9, lsl r1
     6c8:	02340394 	eorseq	r0, r4, #148, 6	; 0x50000002
     6cc:	16020000 	strne	r0, [r2], -r0
     6d0:	00000119 	andeq	r0, r0, r9, lsl r1
     6d4:	02390398 	eorseq	r0, r9, #152, 6	; 0x60000002
     6d8:	17020000 	strne	r0, [r2, -r0]
     6dc:	00000119 	andeq	r0, r0, r9, lsl r1
     6e0:	0245039c 	subeq	r0, r5, #156, 6	; 0x70000002
     6e4:	18020000 	stmdane	r2, {}	; <UNPREDICTABLE>
     6e8:	00000119 	andeq	r0, r0, r9, lsl r1
     6ec:	02b403a0 	adcseq	r0, r4, #160, 6	; 0x80000002
     6f0:	19020000 	stmdbne	r2, {}	; <UNPREDICTABLE>
     6f4:	00000119 	andeq	r0, r0, r9, lsl r1
     6f8:	029603a4 	addseq	r0, r6, #164, 6	; 0x90000002
     6fc:	1a020000 	bne	80704 <shift+0x80704>
     700:	00000119 	andeq	r0, r0, r9, lsl r1
     704:	026e03a8 	rsbeq	r0, lr, #168, 6	; 0xa0000002
     708:	1b020000 	blne	80710 <shift+0x80710>
     70c:	00000119 	andeq	r0, r0, r9, lsl r1
     710:	02b903ac 	adcseq	r0, r9, #172, 6	; 0xb0000002
     714:	1c020000 	stcne	0, cr0, [r2], {-0}
     718:	00000119 	andeq	r0, r0, r9, lsl r1
     71c:	545504b0 	ldrbpl	r0, [r5], #-1200	; 0xfffffb50
     720:	1d020053 	stcne	0, cr0, [r2, #-332]	; 0xfffffeb4
     724:	00000119 	andeq	r0, r0, r9, lsl r1
     728:	029b03b4 	addseq	r0, fp, #180, 6	; 0xd0000002
     72c:	1e020000 	cdpne	0, 0, cr0, cr2, cr0, {0}
     730:	00000119 	andeq	r0, r0, r9, lsl r1
     734:	040500b8 	streq	r0, [r5], #-184	; 0xffffff48
     738:	00018907 	andeq	r8, r1, r7, lsl #18
     73c:	01120600 	tsteq	r2, r0, lsl #12
     740:	35070000 	strcc	r0, [r7, #-0]
     744:	2e000001 	cdpcs	0, 0, cr0, cr0, cr1, {0}
     748:	08000001 	stmdaeq	r0, {r0}
     74c:	0000012e 	andeq	r0, r0, lr, lsr #2
     750:	0405003b 	streq	r0, [r5], #-59	; 0xffffffc5
     754:	00010607 	andeq	r0, r1, r7, lsl #12
     758:	08010500 	stmdaeq	r1, {r8, sl}
     75c:	0000000c 	andeq	r0, r0, ip
     760:	00033409 	andeq	r3, r3, r9, lsl #8
     764:	251f0200 	ldrcs	r0, [pc, #-512]	; 56c <shift+0x56c>
     768:	0a000000 	beq	770 <shift+0x770>
     76c:	0000024a 	andeq	r0, r0, sl, asr #4
     770:	01580301 	cmpeq	r8, r1, lsl #6
     774:	03050000 	movweq	r0, #20480	; 0x5000
     778:	8010127c 	andshi	r1, r0, ip, ror r2
     77c:	0119040b 	tsteq	r9, fp, lsl #8
     780:	fe0a0000 	cdp2	0, 0, cr0, cr10, cr0, {0}
     784:	01000002 	tsteq	r0, r2
     788:	00015804 	andeq	r5, r1, r4, lsl #16
     78c:	80030500 	andhi	r0, r3, r0, lsl #10
     790:	0a801012 	beq	fe0047e0 <Kernel_end+0x7dc047e0>
     794:	000002d7 	ldrdeq	r0, [r0], -r7
     798:	01580501 	cmpeq	r8, r1, lsl #10
     79c:	03050000 	movweq	r0, #20480	; 0x5000
     7a0:	80101284 	andshi	r1, r0, r4, lsl #5
     7a4:	0002c70c 	andeq	ip, r2, ip, lsl #14
     7a8:	a87b0100 	ldmdage	fp!, {r8}^
     7ac:	ce000001 	cdpgt	0, 0, cr0, cr0, cr1, {0}
     7b0:	16801008 	strne	r1, [r0], r8
     7b4:	01000000 	mrseq	r0, (UNDEF: 0)
     7b8:	0001a89c 	muleq	r1, ip, r8
     7bc:	023e0d00 	eorseq	r0, lr, #0, 26
     7c0:	7b010000 	blvc	407c8 <shift+0x407c8>
     7c4:	000001a8 	andeq	r0, r0, r8, lsr #3
     7c8:	00749102 	rsbseq	r9, r4, r2, lsl #2
     7cc:	6905040e 	stmdbvs	r5, {r1, r2, r3, sl}
     7d0:	0f00746e 	svceq	0x0000746e
     7d4:	00000322 	andeq	r0, r0, r2, lsr #6
     7d8:	08a47301 	stmiaeq	r4!, {r0, r8, r9, ip, sp, lr}
     7dc:	002a8010 	eoreq	r8, sl, r0, lsl r0
     7e0:	9c010000 	stcls	0, cr0, [r1], {-0}
     7e4:	000001d1 	ldrdeq	r0, [r0], -r1
     7e8:	01007310 	tsteq	r0, r0, lsl r3
     7ec:	0001d173 	andeq	sp, r1, r3, ror r1
     7f0:	74910200 	ldrvc	r0, [r1], #512	; 0x200
     7f4:	de040b00 	vmlale.f64	d0, d4, d0
     7f8:	05000001 	streq	r0, [r0, #-1]
     7fc:	00150801 	andseq	r0, r5, r1, lsl #16
     800:	d7110000 	ldrle	r0, [r1, -r0]
     804:	12000001 	andne	r0, r0, #1
     808:	00000219 	andeq	r0, r0, r9, lsl r2
     80c:	01356201 	teqeq	r5, r1, lsl #4
     810:	08780000 	ldmdaeq	r8!, {}^	; <UNPREDICTABLE>
     814:	002c8010 	eoreq	r8, ip, r0, lsl r0
     818:	9c010000 	stcls	0, cr0, [r1], {-0}
     81c:	0002bf13 	andeq	fp, r2, r3, lsl pc
     820:	44510100 	ldrbmi	r0, [r1], #-256	; 0xffffff00
     824:	34801008 	strcc	r1, [r0], #8
     828:	01000000 	mrseq	r0, (UNDEF: 0)
     82c:	00021a9c 	muleq	r2, ip, sl
     830:	00631000 	rsbeq	r1, r3, r0
     834:	01a85101 			; <UNDEFINED> instruction: 0x01a85101
     838:	91020000 	mrsls	r0, (UNDEF: 2)
     83c:	cd140074 	ldcgt	0, cr0, [r4, #-464]	; 0xfffffe30
     840:	01000002 	tsteq	r0, r2
     844:	10074e11 	andne	r4, r7, r1, lsl lr
     848:	0000f680 	andeq	pc, r0, r0, lsl #13
     84c:	009c0100 	addseq	r0, ip, r0, lsl #2
     850:	000001c8 	andeq	r0, r0, r8, asr #3
     854:	048b0004 	streq	r0, [fp], #4
     858:	01040000 	mrseq	r0, (UNDEF: 4)
     85c:	00000087 	andeq	r0, r0, r7, lsl #1
     860:	0003560c 	andeq	r5, r3, ip, lsl #12
     864:	00002d00 	andeq	r2, r0, r0, lsl #26
     868:	1008e400 	andne	lr, r8, r0, lsl #8
     86c:	00011480 	andeq	r1, r1, r0, lsl #9
     870:	0002f800 	andeq	pc, r2, r0, lsl #16
     874:	01cc0200 	biceq	r0, ip, r0, lsl #4
     878:	01020000 	mrseq	r0, (UNDEF: 2)
     87c:	00000030 	andeq	r0, r0, r0, lsr r0
     880:	89070403 	stmdbhi	r7, {r0, r1, sl}
     884:	03000001 	movweq	r0, #1
     888:	000c0801 	andeq	r0, ip, r1, lsl #16
     88c:	02030000 	andeq	r0, r3, #0
     890:	00001a07 	andeq	r1, r0, r7, lsl #20
     894:	00500400 	subseq	r0, r0, r0, lsl #8
     898:	00500000 	subseq	r0, r0, r0
     89c:	00050000 	andeq	r0, r5, r0
     8a0:	15080103 	strne	r0, [r8, #-259]	; 0xfffffefd
     8a4:	06000000 	streq	r0, [r0], -r0
     8a8:	00000050 	andeq	r0, r0, r0, asr r0
     8ac:	00007c07 	andeq	r7, r0, r7, lsl #24
     8b0:	45030100 	strmi	r0, [r3, #-256]	; 0xffffff00
     8b4:	08000000 	stmdaeq	r0, {}	; <UNPREDICTABLE>
     8b8:	006e7572 	rsbeq	r7, lr, r2, ror r5
     8bc:	80050104 	andhi	r0, r5, r4, lsl #2
     8c0:	09000000 	stmdbeq	r0, {}	; <UNPREDICTABLE>
     8c4:	00000388 	andeq	r0, r0, r8, lsl #7
     8c8:	00800701 	addeq	r0, r0, r1, lsl #14
     8cc:	00000000 	andeq	r0, r0, r0
     8d0:	0067040a 	rsbeq	r0, r7, sl, lsl #8
     8d4:	080b0000 	stmdaeq	fp, {}	; <UNPREDICTABLE>
     8d8:	00a70901 	adceq	r0, r7, r1, lsl #18
     8dc:	6e0c0000 	cdpvs	0, 0, cr0, cr12, cr0, {0}
     8e0:	01006d75 	tsteq	r0, r5, ror sp
     8e4:	0000a70b 	andeq	sl, r0, fp, lsl #14
     8e8:	79090000 	stmdbvc	r9, {}	; <UNPREDICTABLE>
     8ec:	01000003 	tsteq	r0, r3
     8f0:	0000800c 	andeq	r8, r0, ip
     8f4:	0d000400 	cfstrseq	mvf0, [r0, #-0]
     8f8:	6e690504 	cdpvs	5, 6, cr0, cr9, cr4, {0}
     8fc:	4a0e0074 	bmi	380ad4 <shift+0x380ad4>
     900:	01000003 	tsteq	r0, r3
     904:	0000860d 	andeq	r8, r0, sp, lsl #12
     908:	90030500 	andls	r0, r3, r0, lsl #10
     90c:	0f801012 	svceq	0x00801012
     910:	0000036f 	andeq	r0, r0, pc, ror #6
     914:	09ba3201 	ldmibeq	sl!, {r0, r9, ip, sp}
     918:	003e8010 	eorseq	r8, lr, r0, lsl r0
     91c:	9c010000 	stcls	0, cr0, [r1], {-0}
     920:	000000fb 	strdeq	r0, [r0], -fp
     924:	00737610 	rsbseq	r7, r3, r0, lsl r6
     928:	00fb3201 	rscseq	r3, fp, r1, lsl #4
     92c:	91020000 	mrsls	r0, (UNDEF: 2)
     930:	6576106c 	ldrbvs	r1, [r6, #-108]!	; 0xffffff94
     934:	fb320100 	blx	c80d3e <shift+0xc80d3e>
     938:	02000000 	andeq	r0, r0, #0
     93c:	70116891 	mulsvc	r1, r1, r8
     940:	fd340100 	ldc2	1, cr0, [r4, #-0]
     944:	02000000 	andeq	r0, r0, #0
     948:	12007491 	andne	r7, r0, #-1862270976	; 0x91000000
     94c:	50040a04 	andpl	r0, r4, r4, lsl #20
     950:	13000000 	movwne	r0, #0
     954:	00000343 	andeq	r0, r0, r3, asr #6
     958:	00fd2301 	rscseq	r2, sp, r1, lsl #6
     95c:	09780000 	ldmdbeq	r8!, {}^	; <UNPREDICTABLE>
     960:	00428010 	subeq	r8, r2, r0, lsl r0
     964:	9c010000 	stcls	0, cr0, [r1], {-0}
     968:	00000129 	andeq	r0, r0, r9, lsr #2
     96c:	01007211 	tsteq	r0, r1, lsl r2
     970:	00008025 	andeq	r8, r0, r5, lsr #32
     974:	74910200 	ldrvc	r0, [r1], #512	; 0x200
     978:	03821400 	orreq	r1, r2, #0, 8
     97c:	1a010000 	bne	40984 <shift+0x40984>
     980:	80100930 	andshi	r0, r0, r0, lsr r9
     984:	00000048 	andeq	r0, r0, r8, asr #32
     988:	01579c01 	cmpeq	r7, r1, lsl #24
     98c:	76100000 	ldrvc	r0, [r0], -r0
     990:	fd1a0100 	ldc2	1, cr0, [sl, #-0]
     994:	02000000 	andeq	r0, r0, #0
     998:	72116c91 	andsvc	r6, r1, #37120	; 0x9100
     99c:	801c0100 	andshi	r0, ip, r0, lsl #2
     9a0:	02000000 	andeq	r0, r0, #0
     9a4:	0f007491 	svceq	0x00007491
     9a8:	0000034f 	andeq	r0, r0, pc, asr #6
     9ac:	09161501 	ldmdbeq	r6, {r0, r8, sl, ip}
     9b0:	001a8010 	andseq	r8, sl, r0, lsl r0
     9b4:	9c010000 	stcls	0, cr0, [r1], {-0}
     9b8:	00000185 	andeq	r0, r0, r5, lsl #3
     9bc:	01007310 	tsteq	r0, r0, lsl r3
     9c0:	0000fb15 	andeq	pc, r0, r5, lsl fp	; <UNPREDICTABLE>
     9c4:	74910200 	ldrvc	r0, [r1], #512	; 0x200
     9c8:	01007410 	tsteq	r0, r0, lsl r4
     9cc:	0000fb15 	andeq	pc, r0, r5, lsl fp	; <UNPREDICTABLE>
     9d0:	70910200 	addsvc	r0, r1, r0, lsl #4
     9d4:	012b0f00 			; <UNDEFINED> instruction: 0x012b0f00
     9d8:	0f010000 	svceq	0x00010000
     9dc:	801008e4 	andshi	r0, r0, r4, ror #17
     9e0:	00000032 	andeq	r0, r0, r2, lsr r0
     9e4:	01c59c01 	biceq	r9, r5, r1, lsl #24
     9e8:	73100000 	tstvc	r0, #0
     9ec:	fb0f0100 	blx	3c0df6 <shift+0x3c0df6>
     9f0:	02000000 	andeq	r0, r0, #0
     9f4:	74107491 	ldrvc	r7, [r0], #-1169	; 0xfffffb6f
     9f8:	fb0f0100 	blx	3c0e02 <shift+0x3c0e02>
     9fc:	02000000 	andeq	r0, r0, #0
     a00:	62157091 	andsvs	r7, r5, #145	; 0x91
     a04:	03000001 	movweq	r0, #1
     a08:	0000a700 	andeq	sl, r0, r0, lsl #14
     a0c:	01c51600 	biceq	r1, r5, r0, lsl #12
     a10:	00170000 	andseq	r0, r7, r0
     a14:	57040a00 	strpl	r0, [r4, -r0, lsl #20]
     a18:	00000000 	andeq	r0, r0, r0
     a1c:	000002d7 	ldrdeq	r0, [r0], -r7
     a20:	05ce0004 	strbeq	r0, [lr, #4]
     a24:	01040000 	mrseq	r0, (UNDEF: 4)
     a28:	00000087 	andeq	r0, r0, r7, lsl #1
     a2c:	0003e40c 	andeq	lr, r3, ip, lsl #8
     a30:	00002d00 	andeq	r2, r0, r0, lsl #26
     a34:	1009f800 	andne	pc, r9, r0, lsl #16
     a38:	00027c80 	andeq	r7, r2, r0, lsl #25
     a3c:	00039d00 	andeq	r9, r3, r0, lsl #26
     a40:	01cc0200 	biceq	r0, ip, r0, lsl #4
     a44:	01030000 	mrseq	r0, (UNDEF: 3)
     a48:	00000030 	andeq	r0, r0, r0, lsr r0
     a4c:	89070403 	stmdbhi	r7, {r0, r1, sl}
     a50:	03000001 	movweq	r0, #1
     a54:	000c0801 	andeq	r0, ip, r1, lsl #16
     a58:	02030000 	andeq	r0, r3, #0
     a5c:	00001a07 	andeq	r1, r0, r7, lsl #20
     a60:	00610200 	rsbeq	r0, r1, r0, lsl #4
     a64:	04030000 	streq	r0, [r3], #-0
     a68:	00000025 	andeq	r0, r0, r5, lsr #32
     a6c:	00005b04 	andeq	r5, r0, r4, lsl #22
     a70:	00005b00 	andeq	r5, r0, r0, lsl #22
     a74:	03000500 	movweq	r0, #1280	; 0x500
     a78:	00150801 	andseq	r0, r5, r1, lsl #16
     a7c:	a6060000 	strge	r0, [r6], -r0
     a80:	02000003 	andeq	r0, r0, #3
     a84:	00005006 	andeq	r5, r0, r6
     a88:	03920600 	orrseq	r0, r2, #0, 12
     a8c:	07020000 	streq	r0, [r2, -r0]
     a90:	00000050 	andeq	r0, r0, r0, asr r0
     a94:	0003c807 	andeq	ip, r3, r7, lsl #16
     a98:	89080200 	stmdbhi	r8, {r9}
     a9c:	05000000 	streq	r0, [r0, #-0]
     aa0:	10129803 	andsne	r9, r2, r3, lsl #16
     aa4:	45040880 	strmi	r0, [r4, #-2176]	; 0xfffff780
     aa8:	09000000 	stmdbeq	r0, {}	; <UNPREDICTABLE>
     aac:	000003d5 	ldrdeq	r0, [r0], -r5
     ab0:	c93a0210 	ldmdbgt	sl!, {r4, r9}
     ab4:	0a000000 	beq	abc <shift+0xabc>
     ab8:	02007376 	andeq	r7, r0, #-671088639	; 0xd8000001
     abc:	0000c93c 	andeq	ip, r0, ip, lsr r9
     ac0:	700a0000 	andvc	r0, sl, r0
     ac4:	3d020073 	stccc	0, cr0, [r2, #-460]	; 0xfffffe34
     ac8:	00000025 	andeq	r0, r0, r5, lsr #32
     acc:	65700a04 	ldrbvs	r0, [r0, #-2564]!	; 0xfffff5fc
     ad0:	253e0200 	ldrcs	r0, [lr, #-512]!	; 0xfffffe00
     ad4:	08000000 	stmdaeq	r0, {}	; <UNPREDICTABLE>
     ad8:	00010f0b 	andeq	r0, r1, fp, lsl #30
     adc:	cb3f0200 	blgt	fc12e4 <shift+0xfc12e4>
     ae0:	0c000000 	stceq	0, cr0, [r0], {-0}
     ae4:	0d040c00 	stceq	12, cr0, [r4, #-0]
     ae8:	6e690504 	cdpvs	5, 6, cr0, cr9, cr4, {0}
     aec:	8f040074 	svchi	0x00040074
     af0:	e2000000 	and	r0, r0, #0
     af4:	0e000000 	cdpeq	0, 0, cr0, cr0, cr0, {0}
     af8:	000000e2 	andeq	r0, r0, r2, ror #1
     afc:	04030002 	streq	r0, [r3], #-2
     b00:	00010607 	andeq	r0, r1, r7, lsl #12
     b04:	03d50f00 	bicseq	r0, r5, #0, 30
     b08:	40020000 	andmi	r0, r2, r0
     b0c:	000000d2 	ldrdeq	r0, [r0], -r2
     b10:	12480305 	subne	r0, r8, #335544320	; 0x14000000
     b14:	9d108010 	ldcls	0, cr8, [r0, #-64]	; 0xffffffc0
     b18:	02000003 	andeq	r0, r0, #3
     b1c:	0000894e 	andeq	r8, r0, lr, asr #18
     b20:	100bde00 	andne	sp, fp, r0, lsl #28
     b24:	00009680 	andeq	r9, r0, r0, lsl #13
     b28:	449c0100 	ldrmi	r0, [ip], #256	; 0x100
     b2c:	0f000001 	svceq	0x00000001
     b30:	000003c9 	andeq	r0, r0, r9, asr #7
     b34:	00895002 	addeq	r5, r9, r2
     b38:	91020000 	mrsls	r0, (UNDEF: 2)
     b3c:	006b1174 	rsbeq	r1, fp, r4, ror r1
     b40:	01445102 	cmpeq	r4, r2, lsl #2
     b44:	91020000 	mrsls	r0, (UNDEF: 2)
     b48:	0be41270 	bleq	ff905510 <Kernel_end+0x7f505510>
     b4c:	002e8010 	eoreq	r8, lr, r0, lsl r0
     b50:	69110000 	ldmdbvs	r1, {}	; <UNPREDICTABLE>
     b54:	cb530200 	blgt	14c135c <shift+0x14c135c>
     b58:	02000000 	andeq	r0, r0, #0
     b5c:	00006c91 	muleq	r0, r1, ip
     b60:	008f0408 	addeq	r0, pc, r8, lsl #8
     b64:	da130000 	ble	4c0b6c <shift+0x4c0b6c>
     b68:	02000003 	andeq	r0, r0, #3
     b6c:	100bc64a 	andne	ip, fp, sl, asr #12
     b70:	00001880 	andeq	r1, r0, r0, lsl #17
     b74:	139c0100 	orrsne	r0, ip, #0, 2
     b78:	00000058 	andeq	r0, r0, r8, asr r0
     b7c:	0b9e4402 	bleq	fe791b8c <Kernel_end+0x7e391b8c>
     b80:	00288010 	eoreq	r8, r8, r0, lsl r0
     b84:	9c010000 	stcls	0, cr0, [r1], {-0}
     b88:	0003b114 	andeq	fp, r3, r4, lsl r1
     b8c:	cb270200 	blgt	9c1394 <shift+0x9c1394>
     b90:	2a000000 	bcs	b98 <shift+0xb98>
     b94:	7480100b 	strvc	r1, [r0], #11
     b98:	01000000 	mrseq	r0, (UNDEF: 0)
     b9c:	0001f29c 	muleq	r1, ip, r2
     ba0:	03c91500 	biceq	r1, r9, #0, 10
     ba4:	27020000 	strcs	r0, [r2, -r0]
     ba8:	00000089 	andeq	r0, r0, r9, lsl #1
     bac:	16649102 	strbtne	r9, [r4], -r2, lsl #2
     bb0:	02006176 	andeq	r6, r0, #-2147483619	; 0x8000001d
     bb4:	0000c927 	andeq	ip, r0, r7, lsr #18
     bb8:	60910200 	addsvs	r0, r1, r0, lsl #4
     bbc:	00617016 	rsbeq	r7, r1, r6, lsl r0
     bc0:	00252702 	eoreq	r2, r5, r2, lsl #14
     bc4:	91020000 	mrsls	r0, (UNDEF: 2)
     bc8:	03c0155c 	biceq	r1, r0, #92, 10	; 0x17000000
     bcc:	27020000 	strcs	r0, [r2, -r0]
     bd0:	00000025 	andeq	r0, r0, r5, lsr #32
     bd4:	15589102 	ldrbne	r9, [r8, #-258]	; 0xfffffefe
     bd8:	0000010f 	andeq	r0, r0, pc, lsl #2
     bdc:	00cb2702 	sbceq	r2, fp, r2, lsl #14
     be0:	91020000 	mrsls	r0, (UNDEF: 2)
     be4:	00611100 	rsbeq	r1, r1, r0, lsl #2
     be8:	01f22902 	mvnseq	r2, r2, lsl #18
     bec:	91020000 	mrsls	r0, (UNDEF: 2)
     bf0:	038d0f74 	orreq	r0, sp, #116, 30	; 0x1d0
     bf4:	29020000 	stmdbcs	r2, {}	; <UNPREDICTABLE>
     bf8:	000001f2 	strdeq	r0, [r0], -r2
     bfc:	11709102 	cmnne	r0, r2, lsl #2
     c00:	00657470 	rsbeq	r7, r5, r0, ror r4
     c04:	00892a02 	addeq	r2, r9, r2, lsl #20
     c08:	91020000 	mrsls	r0, (UNDEF: 2)
     c0c:	0408006c 	streq	r0, [r8], #-108	; 0xffffff94
     c10:	0000005b 	andeq	r0, r0, fp, asr r0
     c14:	0003c514 	andeq	ip, r3, r4, lsl r5
     c18:	89090200 	stmdbhi	r9, {r9}
     c1c:	48000000 	stmdami	r0, {}	; <UNPREDICTABLE>
     c20:	e280100a 	add	r1, r0, #10
     c24:	01000000 	mrseq	r0, (UNDEF: 0)
     c28:	0002839c 	muleq	r2, ip, r3
     c2c:	03c91500 	biceq	r1, r9, #0, 10
     c30:	09020000 	stmdbeq	r2, {}	; <UNPREDICTABLE>
     c34:	00000089 	andeq	r0, r0, r9, lsl #1
     c38:	166c9102 	strbtne	r9, [ip], -r2, lsl #2
     c3c:	02006176 	andeq	r6, r0, #-2147483619	; 0x8000001d
     c40:	00028309 	andeq	r8, r2, r9, lsl #6
     c44:	68910200 	ldmvs	r1, {r9}
     c48:	00034415 	andeq	r4, r3, r5, lsl r4
     c4c:	cb090200 	blgt	241454 <shift+0x241454>
     c50:	02000000 	andeq	r0, r0, #0
     c54:	70116491 	mulsvc	r1, r1, r4
     c58:	02006564 	andeq	r6, r0, #100, 10	; 0x19000000
     c5c:	0000890b 	andeq	r8, r0, fp, lsl #18
     c60:	70910200 	addsvc	r0, r1, r0, lsl #4
     c64:	0003cf0f 	andeq	ip, r3, pc, lsl #30
     c68:	890c0200 	stmdbhi	ip, {r9}
     c6c:	02000000 	andeq	r0, r0, #0
     c70:	7c127491 	cfldrsvc	mvf7, [r2], {145}	; 0x91
     c74:	9a80100a 	bls	fe004ca4 <Kernel_end+0x7dc04ca4>
     c78:	11000000 	mrsne	r0, (UNDEF: 0)
     c7c:	00746e63 	rsbseq	r6, r4, r3, ror #28
     c80:	00cb1402 	sbceq	r1, fp, r2, lsl #8
     c84:	03050000 	movweq	r0, #20480	; 0x5000
     c88:	80101278 	andshi	r1, r0, r8, ror r2
     c8c:	0003ba0f 	andeq	fp, r3, pc, lsl #20
     c90:	89150200 	ldmdbhi	r5, {r9}
     c94:	05000000 	streq	r0, [r0, #-0]
     c98:	10128803 	andsne	r8, r2, r3, lsl #16
     c9c:	08000080 	stmdaeq	r0, {r7}
     ca0:	00028904 	andeq	r8, r2, r4, lsl #18
     ca4:	32181700 	andscc	r1, r8, #0, 14
     ca8:	01000001 	tsteq	r0, r1
     cac:	100a2811 	andne	r2, sl, r1, lsl r8
     cb0:	00002080 	andeq	r2, r0, r0, lsl #1
     cb4:	ae9c0100 	fmlgee	f0, f4, f0
     cb8:	15000002 	strne	r0, [r0, #-2]
     cbc:	0000022f 	andeq	r0, r0, pc, lsr #4
     cc0:	00251101 	eoreq	r1, r5, r1, lsl #2
     cc4:	91020000 	mrsls	r0, (UNDEF: 2)
     cc8:	14190074 	ldrne	r0, [r9], #-116	; 0xffffff8c
     ccc:	01000001 	tsteq	r0, r1
     cd0:	1009f803 	andne	pc, r9, r3, lsl #16
     cd4:	00003080 	andeq	r3, r0, r0, lsl #1
     cd8:	159c0100 	ldrne	r0, [ip, #256]	; 0x100
     cdc:	000003c9 	andeq	r0, r0, r9, asr #7
     ce0:	00250301 	eoreq	r0, r5, r1, lsl #6
     ce4:	91020000 	mrsls	r0, (UNDEF: 2)
     ce8:	0069116c 	rsbeq	r1, r9, ip, ror #2
     cec:	00250501 	eoreq	r0, r5, r1, lsl #10
     cf0:	91020000 	mrsls	r0, (UNDEF: 2)
     cf4:	a4000074 	strge	r0, [r0], #-116	; 0xffffff8c
     cf8:	04000000 	streq	r0, [r0], #-0
     cfc:	00073f00 	andeq	r3, r7, r0, lsl #30
     d00:	87010400 	strhi	r0, [r1, -r0, lsl #8]
     d04:	0c000000 	stceq	0, cr0, [r0], {-0}
     d08:	000003f9 	strdeq	r0, [r0], -r9
     d0c:	0000002d 	andeq	r0, r0, sp, lsr #32
     d10:	80100c74 	andshi	r0, r0, r4, ror ip
     d14:	0000003e 	andeq	r0, r0, lr, lsr r0
     d18:	00000465 	andeq	r0, r0, r5, ror #8
     d1c:	0001cc02 	andeq	ip, r1, r2, lsl #24
     d20:	30010200 	andcc	r0, r1, r0, lsl #4
     d24:	03000000 	movweq	r0, #0
     d28:	01890704 	orreq	r0, r9, r4, lsl #14
     d2c:	01030000 	mrseq	r0, (UNDEF: 3)
     d30:	00000c08 	andeq	r0, r0, r8, lsl #24
     d34:	07020300 	streq	r0, [r2, -r0, lsl #6]
     d38:	0000001a 	andeq	r0, r0, sl, lsl r0
     d3c:	00040c04 	andeq	r0, r4, r4, lsl #24
     d40:	91020100 	mrsls	r0, (UNDEF: 18)
     d44:	74000000 	strvc	r0, [r0], #-0
     d48:	3e80100c 	cdpcc	0, 8, cr1, cr0, cr12, {0}
     d4c:	01000000 	mrseq	r0, (UNDEF: 0)
     d50:	0000919c 	muleq	r0, ip, r1
     d54:	73640500 	cmnvc	r4, #0, 10
     d58:	02010074 	andeq	r0, r1, #116	; 0x74
     d5c:	00000091 	muleq	r0, r1, r0
     d60:	056c9102 	strbeq	r9, [ip, #-258]!	; 0xfffffefe
     d64:	02010077 	andeq	r0, r1, #119	; 0x77
     d68:	00000093 	muleq	r0, r3, r0
     d6c:	05689102 	strbeq	r9, [r8, #-258]!	; 0xfffffefe
     d70:	0201006e 	andeq	r0, r1, #110	; 0x6e
     d74:	00000025 	andeq	r0, r0, r5, lsr #32
     d78:	06649102 	strbteq	r9, [r4], -r2, lsl #2
     d7c:	03010070 	movweq	r0, #4208	; 0x1070
     d80:	0000009a 	muleq	r0, sl, r0
     d84:	00749102 	rsbseq	r9, r4, r2, lsl #2
     d88:	04080407 	streq	r0, [r8], #-1031	; 0xfffffbf9
     d8c:	746e6905 	strbtvc	r6, [lr], #-2309	; 0xfffff6fb
     d90:	a0040900 	andge	r0, r4, r0, lsl #18
     d94:	03000000 	movweq	r0, #0
     d98:	00150801 	andseq	r0, r5, r1, lsl #16
     d9c:	59000000 	stmdbpl	r0, {}	; <UNPREDICTABLE>
     da0:	04000000 	streq	r0, [r0], #-0
     da4:	0007c000 	andeq	ip, r7, r0
     da8:	87010400 	strhi	r0, [r1, -r0, lsl #8]
     dac:	0c000000 	stceq	0, cr0, [r0], {-0}
     db0:	00000413 	andeq	r0, r0, r3, lsl r4
     db4:	0000002d 	andeq	r0, r0, sp, lsr #32
     db8:	80100cb2 			; <UNDEFINED> instruction: 0x80100cb2
     dbc:	00000028 	andeq	r0, r0, r8, lsr #32
     dc0:	000004cd 	andeq	r0, r0, sp, asr #9
     dc4:	89070402 	stmdbhi	r7, {r1, sl}
     dc8:	02000001 	andeq	r0, r0, #1
     dcc:	000c0801 	andeq	r0, ip, r1, lsl #16
     dd0:	02020000 	andeq	r0, r2, #0
     dd4:	00001a07 	andeq	r1, r0, r7, lsl #20
     dd8:	042a0300 	strteq	r0, [sl], #-768	; 0xfffffd00
     ddc:	08010000 	stmdaeq	r1, {}	; <UNPREDICTABLE>
     de0:	80100cc6 	andshi	r0, r0, r6, asr #25
     de4:	00000014 	andeq	r0, r0, r4, lsl r0
     de8:	30039c01 	andcc	r9, r3, r1, lsl #24
     dec:	01000004 	tsteq	r0, r4
     df0:	100cb203 	andne	fp, ip, r3, lsl #4
     df4:	00001480 	andeq	r1, r0, r0, lsl #9
     df8:	009c0100 	addseq	r0, ip, r0, lsl #2
     dfc:	0000009b 	muleq	r0, fp, r0
     e00:	07f50004 	ldrbeq	r0, [r5, r4]!
     e04:	01040000 	mrseq	r0, (UNDEF: 4)
     e08:	00000087 	andeq	r0, r0, r7, lsl #1
     e0c:	0004360c 	andeq	r3, r4, ip, lsl #12
     e10:	00002d00 	andeq	r2, r0, r0, lsl #26
     e14:	100cda00 	andne	sp, ip, r0, lsl #20
     e18:	00002480 	andeq	r2, r0, r0, lsl #9
     e1c:	00051800 	andeq	r1, r5, r0, lsl #16
     e20:	01cc0200 	biceq	r0, ip, r0, lsl #4
     e24:	01020000 	mrseq	r0, (UNDEF: 2)
     e28:	00000030 	andeq	r0, r0, r0, lsr r0
     e2c:	89070403 	stmdbhi	r7, {r0, r1, sl}
     e30:	03000001 	movweq	r0, #1
     e34:	000c0801 	andeq	r0, ip, r1, lsl #16
     e38:	02030000 	andeq	r0, r3, #0
     e3c:	00001a07 	andeq	r1, r0, r7, lsl #20
     e40:	01380400 	teqeq	r8, r0, lsl #8
     e44:	02010000 	andeq	r0, r1, #0
     e48:	80100cda 			; <UNDEFINED> instruction: 0x80100cda
     e4c:	00000024 	andeq	r0, r0, r4, lsr #32
     e50:	00859c01 	addeq	r9, r5, r1, lsl #24
     e54:	2f050000 	svccs	0x00050000
     e58:	01000002 	tsteq	r0, r2
     e5c:	00002502 	andeq	r2, r0, r2, lsl #10
     e60:	74910200 	ldrvc	r0, [r1], #512	; 0x200
     e64:	01006906 	tsteq	r0, r6, lsl #18
     e68:	00008504 	andeq	r8, r0, r4, lsl #10
     e6c:	62070000 	andvs	r0, r7, #0
     e70:	03000001 	movweq	r0, #1
     e74:	00008500 	andeq	r8, r0, r0, lsl #10
     e78:	008c0800 	addeq	r0, ip, r0, lsl #16
     e7c:	00090000 	andeq	r0, r9, r0
     e80:	05040a00 	streq	r0, [r4, #-2560]	; 0xfffff600
     e84:	00746e69 	rsbseq	r6, r4, r9, ror #28
     e88:	0099040b 	addseq	r0, r9, fp, lsl #8
     e8c:	01030000 	mrseq	r0, (UNDEF: 3)
     e90:	00001508 	andeq	r1, r0, r8, lsl #10
     e94:	00920c00 	addseq	r0, r2, r0, lsl #24
     e98:	65000000 	strvs	r0, [r0, #-0]
     e9c:	02000000 	andeq	r0, r0, #0
     ea0:	00089300 	andeq	r9, r8, r0, lsl #6
     ea4:	8b010400 	blhi	41eac <shift+0x41eac>
     ea8:	00000005 	andeq	r0, r0, r5
     eac:	2880100d 	stmcs	r0, {r0, r2, r3, ip}
     eb0:	2e80100d 	cdpcs	0, 8, cr1, cr0, cr13, {0}
     eb4:	4358452f 	cmpmi	r8, #197132288	; 0xbc00000
     eb8:	49545045 	ldmdbmi	r4, {r0, r2, r6, ip, lr}^
     ebc:	742f4e4f 	strtvc	r4, [pc], #-3663	; ec4 <shift+0xec4>
     ec0:	61706172 	cmnvs	r0, r2, ror r1
     ec4:	532e6d73 			; <UNDEFINED> instruction: 0x532e6d73
     ec8:	6e6d2f00 	cdpvs	15, 6, cr2, cr13, cr0, {0}
     ecc:	2f632f74 	svccs	0x00632f74
     ed0:	72657355 	rsbvc	r7, r5, #1409286145	; 0x54000001
     ed4:	38322f73 	ldmdacc	r2!, {r0, r1, r4, r5, r6, r8, r9, sl, fp, sp}
     ed8:	2f343532 	svccs	0x00343532
     edc:	6b736544 	blvs	1cda3f4 <shift+0x1cda3f4>
     ee0:	2f706f74 	svccs	0x00706f74
     ee4:	656c6966 	strbvs	r6, [ip, #-2406]!	; 0xfffff69a
     ee8:	6f72502f 	svcvs	0x0072502f
     eec:	6d617267 	sfmvs	f7, 2, [r1, #-412]!	; 0xfffffe64
     ef0:	00534f2f 	subseq	r4, r3, pc, lsr #30
     ef4:	20554e47 	subscs	r4, r5, r7, asr #28
     ef8:	32205341 	eorcc	r5, r0, #67108865	; 0x4000001
     efc:	2e37322e 	cdpcs	2, 3, cr3, cr7, cr14, {1}
     f00:	80010030 	andhi	r0, r1, r0, lsr r0
     f04:	000001bb 			; <UNDEFINED> instruction: 0x000001bb
     f08:	08a70002 	stmiaeq	r7!, {r1}
     f0c:	01040000 	mrseq	r0, (UNDEF: 4)
     f10:	000005d7 	ldrdeq	r0, [r0], -r7
     f14:	80100d28 	andshi	r0, r0, r8, lsr #26
     f18:	80100f9e 	mulshi	r0, lr, pc	; <UNPREDICTABLE>
     f1c:	6d6f682f 	stclvs	8, cr6, [pc, #-188]!	; e68 <shift+0xe68>
     f20:	63742f65 	cmnvs	r4, #404	; 0x194
     f24:	622d6777 	eorvs	r6, sp, #31195136	; 0x1dc0000
     f28:	646c6975 	strbtvs	r6, [ip], #-2421	; 0xfffff68b
     f2c:	76616c73 			; <UNDEFINED> instruction: 0x76616c73
     f30:	6f772f65 	svcvs	0x00772f65
     f34:	70736b72 	rsbsvc	r6, r3, r2, ror fp
     f38:	2f656361 	svccs	0x00656361
     f3c:	67776374 			; <UNDEFINED> instruction: 0x67776374
     f40:	6b616d2d 	blvs	185c3fc <shift+0x185c3fc>
     f44:	65722d65 	ldrbvs	r2, [r2, #-3429]!	; 0xfffff29b
     f48:	7361656c 	cmnvc	r1, #108, 10	; 0x1b000000
     f4c:	616c2f65 	cmnvs	ip, r5, ror #30
     f50:	2f6c6562 	svccs	0x006c6562
     f54:	6b636f64 	blvs	18dccec <shift+0x18dccec>
     f58:	742d7265 	strtvc	r7, [sp], #-613	; 0xfffffd9b
     f5c:	74737572 	ldrbtvc	r7, [r3], #-1394	; 0xfffffa8e
     f60:	6d612d79 	stclvs	13, cr2, [r1, #-484]!	; 0xfffffe1c
     f64:	2d343664 	ldccs	6, cr3, [r4, #-400]!	; 0xfffffe70
     f68:	67776374 			; <UNDEFINED> instruction: 0x67776374
     f6c:	6975622d 	ldmdbvs	r5!, {r0, r2, r3, r5, r9, sp, lr}^
     f70:	742f646c 	strtvc	r6, [pc], #-1132	; f78 <shift+0xf78>
     f74:	65677261 	strbvs	r7, [r7, #-609]!	; 0xfffffd9f
     f78:	72612f74 	rsbvc	r2, r1, #116, 30	; 0x1d0
     f7c:	696c2d6d 	stmdbvs	ip!, {r0, r2, r3, r5, r6, r8, sl, fp, sp}^
     f80:	2d78756e 	cfldr64cs	mvdx7, [r8, #-440]!	; 0xfffffe48
     f84:	65756e67 	ldrbvs	r6, [r5, #-3687]!	; 0xfffff199
     f88:	68696261 	stmdavs	r9!, {r0, r5, r6, r9, sp, lr}^
     f8c:	6e732f66 	cdpvs	15, 7, cr2, cr3, cr6, {3}
     f90:	68737061 	ldmdavs	r3!, {r0, r5, r6, ip, sp, lr}^
     f94:	2f73746f 	svccs	0x0073746f
     f98:	2d636367 	stclcs	3, cr6, [r3, #-412]!	; 0xfffffe64
     f9c:	616e696c 	cmnvs	lr, ip, ror #18
     fa0:	362d6f72 	qsub16cc	r6, sp, r2
     fa4:	322d322e 	eorcc	r3, sp, #-536870910	; 0xe0000002
     fa8:	2e363130 	mrccs	1, 1, r3, cr6, cr0, {1}
     fac:	6c2f3131 	stfvss	f3, [pc], #-196	; ef0 <shift+0xef0>
     fb0:	63676269 	cmnvs	r7, #-1879048186	; 0x90000006
     fb4:	6f632f63 	svcvs	0x00632f63
     fb8:	6769666e 	strbvs	r6, [r9, -lr, ror #12]!
     fbc:	6d72612f 	ldfvse	f6, [r2, #-188]!	; 0xffffff44
     fc0:	62696c2f 	rsbvs	r6, r9, #12032	; 0x2f00
     fc4:	6e756631 	mrcvs	6, 3, r6, cr5, cr1, {1}
     fc8:	532e7363 			; <UNDEFINED> instruction: 0x532e7363
     fcc:	6f682f00 	svcvs	0x00682f00
     fd0:	742f656d 	strtvc	r6, [pc], #-1389	; fd8 <shift+0xfd8>
     fd4:	2d677763 	stclcs	7, cr7, [r7, #-396]!	; 0xfffffe74
     fd8:	6c697562 	cfstr64vs	mvdx7, [r9], #-392	; 0xfffffe78
     fdc:	616c7364 	cmnvs	ip, r4, ror #6
     fe0:	772f6576 			; <UNDEFINED> instruction: 0x772f6576
     fe4:	736b726f 	cmnvc	fp, #-268435450	; 0xf0000006
     fe8:	65636170 	strbvs	r6, [r3, #-368]!	; 0xfffffe90
     fec:	7763742f 	strbvc	r7, [r3, -pc, lsr #8]!
     ff0:	616d2d67 	cmnvs	sp, r7, ror #26
     ff4:	722d656b 	eorvc	r6, sp, #448790528	; 0x1ac00000
     ff8:	61656c65 	cmnvs	r5, r5, ror #24
     ffc:	6c2f6573 	cfstr32vs	mvfx6, [pc], #-460	; e38 <shift+0xe38>
    1000:	6c656261 	sfmvs	f6, 2, [r5], #-388	; 0xfffffe7c
    1004:	636f642f 	cmnvs	pc, #788529152	; 0x2f000000
    1008:	2d72656b 	cfldr64cs	mvdx6, [r2, #-428]!	; 0xfffffe54
    100c:	73757274 	cmnvc	r5, #116, 4	; 0x40000007
    1010:	612d7974 			; <UNDEFINED> instruction: 0x612d7974
    1014:	3436646d 	ldrtcc	r6, [r6], #-1133	; 0xfffffb93
    1018:	7763742d 	strbvc	r7, [r3, -sp, lsr #8]!
    101c:	75622d67 	strbvc	r2, [r2, #-3431]!	; 0xfffff299
    1020:	2f646c69 	svccs	0x00646c69
    1024:	67726174 			; <UNDEFINED> instruction: 0x67726174
    1028:	612f7465 			; <UNDEFINED> instruction: 0x612f7465
    102c:	6c2d6d72 	stcvs	13, cr6, [sp], #-456	; 0xfffffe38
    1030:	78756e69 	ldmdavc	r5!, {r0, r3, r5, r6, r9, sl, fp, sp, lr}^
    1034:	756e672d 	strbvc	r6, [lr, #-1837]!	; 0xfffff8d3
    1038:	69626165 	stmdbvs	r2!, {r0, r2, r5, r6, r8, sp, lr}^
    103c:	5f2f6668 	svcpl	0x002f6668
    1040:	6c697562 	cfstr64vs	mvdx7, [r9], #-392	; 0xfffffe78
    1044:	75622f64 	strbvc	r2, [r2, #-3940]!	; 0xfffff09c
    1048:	73646c69 	cmnvc	r4, #26880	; 0x6900
    104c:	3638782f 	ldrtcc	r7, [r8], -pc, lsr #16
    1050:	2d34365f 	ldccs	6, cr3, [r4, #-380]!	; 0xfffffe84
    1054:	6e6b6e75 	mcrvs	14, 3, r6, cr11, cr5, {3}
    1058:	2d6e776f 	stclcs	7, cr7, [lr, #-444]!	; 0xfffffe44
    105c:	756e696c 	strbvc	r6, [lr, #-2412]!	; 0xfffff694
    1060:	6e672d78 	mcrvs	13, 3, r2, cr7, cr8, {3}
    1064:	72612f75 	rsbvc	r2, r1, #468	; 0x1d4
    1068:	696c2d6d 	stmdbvs	ip!, {r0, r2, r3, r5, r6, r8, sl, fp, sp}^
    106c:	2d78756e 	cfldr64cs	mvdx7, [r8, #-440]!	; 0xfffffe48
    1070:	65756e67 	ldrbvs	r6, [r5, #-3687]!	; 0xfffff199
    1074:	68696261 	stmdavs	r9!, {r0, r5, r6, r9, sp, lr}^
    1078:	63672f66 	cmnvs	r7, #408	; 0x198
    107c:	696c2d63 	stmdbvs	ip!, {r0, r1, r5, r6, r8, sl, fp, sp}^
    1080:	6f72616e 	svcvs	0x0072616e
    1084:	322e362d 	eorcc	r3, lr, #47185920	; 0x2d00000
    1088:	3130322d 	teqcc	r0, sp, lsr #4
    108c:	31312e36 	teqcc	r1, r6, lsr lr
    1090:	6174732d 	cmnvs	r4, sp, lsr #6
    1094:	2f326567 	svccs	0x00326567
    1098:	2d6d7261 	sfmcs	f7, 2, [sp, #-388]!	; 0xfffffe7c
    109c:	756e696c 	strbvc	r6, [lr, #-2412]!	; 0xfffff694
    10a0:	6e672d78 	mcrvs	13, 3, r2, cr7, cr8, {3}
    10a4:	62616575 	rsbvs	r6, r1, #490733568	; 0x1d400000
    10a8:	2f666869 	svccs	0x00666869
    10ac:	6762696c 	strbvs	r6, [r2, -ip, ror #18]!
    10b0:	47006363 	strmi	r6, [r0, -r3, ror #6]
    10b4:	4120554e 			; <UNDEFINED> instruction: 0x4120554e
    10b8:	2e322053 	mrccs	0, 1, r2, cr2, cr3, {2}
    10bc:	302e3732 	eorcc	r3, lr, r2, lsr r7
    10c0:	bb800100 	bllt	fe0014c8 <Kernel_end+0x7dc014c8>
    10c4:	02000001 	andeq	r0, r0, #1
    10c8:	0008bb00 	andeq	fp, r8, r0, lsl #22
    10cc:	d7010400 	strle	r0, [r1, -r0, lsl #8]
    10d0:	a0000006 	andge	r0, r0, r6
    10d4:	ac80100f 	stcge	0, cr1, [r0], {15}
    10d8:	2f80100f 	svccs	0x0080100f
    10dc:	656d6f68 	strbvs	r6, [sp, #-3944]!	; 0xfffff098
    10e0:	7763742f 	strbvc	r7, [r3, -pc, lsr #8]!
    10e4:	75622d67 	strbvc	r2, [r2, #-3431]!	; 0xfffff299
    10e8:	73646c69 	cmnvc	r4, #26880	; 0x6900
    10ec:	6576616c 	ldrbvs	r6, [r6, #-364]!	; 0xfffffe94
    10f0:	726f772f 	rsbvc	r7, pc, #12320768	; 0xbc0000
    10f4:	6170736b 	cmnvs	r0, fp, ror #6
    10f8:	742f6563 	strtvc	r6, [pc], #-1379	; 1100 <shift+0x1100>
    10fc:	2d677763 	stclcs	7, cr7, [r7, #-396]!	; 0xfffffe74
    1100:	656b616d 	strbvs	r6, [fp, #-365]!	; 0xfffffe93
    1104:	6c65722d 	sfmvs	f7, 2, [r5], #-180	; 0xffffff4c
    1108:	65736165 	ldrbvs	r6, [r3, #-357]!	; 0xfffffe9b
    110c:	62616c2f 	rsbvs	r6, r1, #12032	; 0x2f00
    1110:	642f6c65 	strtvs	r6, [pc], #-3173	; 1118 <shift+0x1118>
    1114:	656b636f 	strbvs	r6, [fp, #-879]!	; 0xfffffc91
    1118:	72742d72 	rsbsvc	r2, r4, #7296	; 0x1c80
    111c:	79747375 	ldmdbvc	r4!, {r0, r2, r4, r5, r6, r8, r9, ip, sp, lr}^
    1120:	646d612d 	strbtvs	r6, [sp], #-301	; 0xfffffed3
    1124:	742d3436 	strtvc	r3, [sp], #-1078	; 0xfffffbca
    1128:	2d677763 	stclcs	7, cr7, [r7, #-396]!	; 0xfffffe74
    112c:	6c697562 	cfstr64vs	mvdx7, [r9], #-392	; 0xfffffe78
    1130:	61742f64 	cmnvs	r4, r4, ror #30
    1134:	74656772 	strbtvc	r6, [r5], #-1906	; 0xfffff88e
    1138:	6d72612f 	ldfvse	f6, [r2, #-188]!	; 0xffffff44
    113c:	6e696c2d 	cdpvs	12, 6, cr6, cr9, cr13, {1}
    1140:	672d7875 			; <UNDEFINED> instruction: 0x672d7875
    1144:	6165756e 	cmnvs	r5, lr, ror #10
    1148:	66686962 	strbtvs	r6, [r8], -r2, ror #18
    114c:	616e732f 	cmnvs	lr, pc, lsr #6
    1150:	6f687370 	svcvs	0x00687370
    1154:	672f7374 			; <UNDEFINED> instruction: 0x672f7374
    1158:	6c2d6363 	stcvs	3, cr6, [sp], #-396	; 0xfffffe74
    115c:	72616e69 	rsbvc	r6, r1, #1680	; 0x690
    1160:	2e362d6f 	cdpcs	13, 3, cr2, cr6, cr15, {3}
    1164:	30322d32 	eorscc	r2, r2, r2, lsr sp
    1168:	312e3631 			; <UNDEFINED> instruction: 0x312e3631
    116c:	696c2f31 	stmdbvs	ip!, {r0, r4, r5, r8, r9, sl, fp, sp}^
    1170:	63636762 	cmnvs	r3, #25690112	; 0x1880000
    1174:	6e6f632f 	cdpvs	3, 6, cr6, cr15, cr15, {1}
    1178:	2f676966 	svccs	0x00676966
    117c:	2f6d7261 	svccs	0x006d7261
    1180:	3162696c 	cmncc	r2, ip, ror #18
    1184:	636e7566 	cmnvs	lr, #427819008	; 0x19800000
    1188:	00532e73 	subseq	r2, r3, r3, ror lr
    118c:	6d6f682f 	stclvs	8, cr6, [pc, #-188]!	; 10d8 <shift+0x10d8>
    1190:	63742f65 	cmnvs	r4, #404	; 0x194
    1194:	622d6777 	eorvs	r6, sp, #31195136	; 0x1dc0000
    1198:	646c6975 	strbtvs	r6, [ip], #-2421	; 0xfffff68b
    119c:	76616c73 			; <UNDEFINED> instruction: 0x76616c73
    11a0:	6f772f65 	svcvs	0x00772f65
    11a4:	70736b72 	rsbsvc	r6, r3, r2, ror fp
    11a8:	2f656361 	svccs	0x00656361
    11ac:	67776374 			; <UNDEFINED> instruction: 0x67776374
    11b0:	6b616d2d 	blvs	185c66c <shift+0x185c66c>
    11b4:	65722d65 	ldrbvs	r2, [r2, #-3429]!	; 0xfffff29b
    11b8:	7361656c 	cmnvc	r1, #108, 10	; 0x1b000000
    11bc:	616c2f65 	cmnvs	ip, r5, ror #30
    11c0:	2f6c6562 	svccs	0x006c6562
    11c4:	6b636f64 	blvs	18dcf5c <shift+0x18dcf5c>
    11c8:	742d7265 	strtvc	r7, [sp], #-613	; 0xfffffd9b
    11cc:	74737572 	ldrbtvc	r7, [r3], #-1394	; 0xfffffa8e
    11d0:	6d612d79 	stclvs	13, cr2, [r1, #-484]!	; 0xfffffe1c
    11d4:	2d343664 	ldccs	6, cr3, [r4, #-400]!	; 0xfffffe70
    11d8:	67776374 			; <UNDEFINED> instruction: 0x67776374
    11dc:	6975622d 	ldmdbvs	r5!, {r0, r2, r3, r5, r9, sp, lr}^
    11e0:	742f646c 	strtvc	r6, [pc], #-1132	; 11e8 <shift+0x11e8>
    11e4:	65677261 	strbvs	r7, [r7, #-609]!	; 0xfffffd9f
    11e8:	72612f74 	rsbvc	r2, r1, #116, 30	; 0x1d0
    11ec:	696c2d6d 	stmdbvs	ip!, {r0, r2, r3, r5, r6, r8, sl, fp, sp}^
    11f0:	2d78756e 	cfldr64cs	mvdx7, [r8, #-440]!	; 0xfffffe48
    11f4:	65756e67 	ldrbvs	r6, [r5, #-3687]!	; 0xfffff199
    11f8:	68696261 	stmdavs	r9!, {r0, r5, r6, r9, sp, lr}^
    11fc:	625f2f66 	subsvs	r2, pc, #408	; 0x198
    1200:	646c6975 	strbtvs	r6, [ip], #-2421	; 0xfffff68b
    1204:	6975622f 	ldmdbvs	r5!, {r0, r1, r2, r3, r5, r9, sp, lr}^
    1208:	2f73646c 	svccs	0x0073646c
    120c:	5f363878 	svcpl	0x00363878
    1210:	752d3436 	strvc	r3, [sp, #-1078]!	; 0xfffffbca
    1214:	6f6e6b6e 	svcvs	0x006e6b6e
    1218:	6c2d6e77 	stcvs	14, cr6, [sp], #-476	; 0xfffffe24
    121c:	78756e69 	ldmdavc	r5!, {r0, r3, r5, r6, r9, sl, fp, sp, lr}^
    1220:	756e672d 	strbvc	r6, [lr, #-1837]!	; 0xfffff8d3
    1224:	6d72612f 	ldfvse	f6, [r2, #-188]!	; 0xffffff44
    1228:	6e696c2d 	cdpvs	12, 6, cr6, cr9, cr13, {1}
    122c:	672d7875 			; <UNDEFINED> instruction: 0x672d7875
    1230:	6165756e 	cmnvs	r5, lr, ror #10
    1234:	66686962 	strbtvs	r6, [r8], -r2, ror #18
    1238:	6363672f 	cmnvs	r3, #12320768	; 0xbc0000
    123c:	6e696c2d 	cdpvs	12, 6, cr6, cr9, cr13, {1}
    1240:	2d6f7261 	sfmcs	f7, 2, [pc, #-388]!	; 10c4 <shift+0x10c4>
    1244:	2d322e36 	ldccs	14, cr2, [r2, #-216]!	; 0xffffff28
    1248:	36313032 			; <UNDEFINED> instruction: 0x36313032
    124c:	2d31312e 	ldfcss	f3, [r1, #-184]!	; 0xffffff48
    1250:	67617473 			; <UNDEFINED> instruction: 0x67617473
    1254:	612f3265 			; <UNDEFINED> instruction: 0x612f3265
    1258:	6c2d6d72 	stcvs	13, cr6, [sp], #-456	; 0xfffffe38
    125c:	78756e69 	ldmdavc	r5!, {r0, r3, r5, r6, r9, sl, fp, sp, lr}^
    1260:	756e672d 	strbvc	r6, [lr, #-1837]!	; 0xfffff8d3
    1264:	69626165 	stmdbvs	r2!, {r0, r2, r5, r6, r8, sp, lr}^
    1268:	6c2f6668 	stcvs	6, cr6, [pc], #-416	; 10d0 <shift+0x10d0>
    126c:	63676269 	cmnvs	r7, #-1879048186	; 0x90000006
    1270:	4e470063 	cdpmi	0, 4, cr0, cr7, cr3, {3}
    1274:	53412055 	movtpl	r2, #4181	; 0x1055
    1278:	322e3220 	eorcc	r3, lr, #32, 4
    127c:	00302e37 	eorseq	r2, r0, r7, lsr lr
    1280:	Address 0x0000000000001280 is out of bounds.


Disassembly of section .debug_abbrev:

00000000 <.debug_abbrev>:
   0:	10001101 	andne	r1, r0, r1, lsl #2
   4:	12011106 	andne	r1, r1, #-2147483647	; 0x80000001
   8:	1b080301 	blne	200c14 <shift+0x200c14>
   c:	13082508 	movwne	r2, #34056	; 0x8508
  10:	00000005 	andeq	r0, r0, r5
  14:	25011101 	strcs	r1, [r1, #-257]	; 0xfffffeff
  18:	030b130e 	movweq	r1, #45838	; 0xb30e
  1c:	110e1b0e 	tstne	lr, lr, lsl #22
  20:	10061201 	andne	r1, r6, r1, lsl #4
  24:	02000017 	andeq	r0, r0, #23
  28:	0e030016 	mcreq	0, 0, r0, cr3, cr6, {0}
  2c:	0b3b0b3a 	bleq	ec2d1c <shift+0xec2d1c>
  30:	00001349 	andeq	r1, r0, r9, asr #6
  34:	0b002403 	bleq	9048 <shift+0x9048>
  38:	030b3e0b 	movweq	r3, #48651	; 0xbe0b
  3c:	0400000e 	streq	r0, [r0], #-14
  40:	13490101 	movtne	r0, #37121	; 0x9101
  44:	00001301 	andeq	r1, r0, r1, lsl #6
  48:	00002105 	andeq	r2, r0, r5, lsl #2
  4c:	00340600 	eorseq	r0, r4, r0, lsl #12
  50:	0b3a0e03 	bleq	e83864 <shift+0xe83864>
  54:	13490b3b 	movtne	r0, #39739	; 0x9b3b
  58:	193c193f 	ldmdbne	ip!, {r0, r1, r2, r3, r4, r5, r8, fp, ip}
  5c:	2e070000 	cdpcs	0, 0, cr0, cr7, cr0, {0}
  60:	03193f01 	tsteq	r9, #1, 30
  64:	3b0b3a0e 	blcc	2ce8a4 <shift+0x2ce8a4>
  68:	1119270b 	tstne	r9, fp, lsl #14
  6c:	40061201 	andmi	r1, r6, r1, lsl #4
  70:	19429718 	stmdbne	r2, {r3, r4, r8, r9, sl, ip, pc}^
  74:	00001301 	andeq	r1, r0, r1, lsl #6
  78:	03000508 	movweq	r0, #1288	; 0x508
  7c:	3b0b3a08 	blcc	2ce8a4 <shift+0x2ce8a4>
  80:	0213490b 	andseq	r4, r3, #180224	; 0x2c000
  84:	09000018 	stmdbeq	r0, {r3, r4}
  88:	0e030005 	cdpeq	0, 0, cr0, cr3, cr5, {0}
  8c:	0b3b0b3a 	bleq	ec2d7c <shift+0xec2d7c>
  90:	18021349 	stmdane	r2, {r0, r3, r6, r8, r9, ip}
  94:	340a0000 	strcc	r0, [sl], #-0
  98:	3a0e0300 	bcc	380ca0 <shift+0x380ca0>
  9c:	490b3b0b 	stmdbmi	fp, {r0, r1, r3, r8, r9, fp, ip, sp}
  a0:	00180213 	andseq	r0, r8, r3, lsl r2
  a4:	000f0b00 	andeq	r0, pc, r0, lsl #22
  a8:	13490b0b 	movtne	r0, #39691	; 0x9b0b
  ac:	240c0000 	strcs	r0, [ip], #-0
  b0:	3e0b0b00 	vmlacc.f64	d0, d11, d0
  b4:	0008030b 	andeq	r0, r8, fp, lsl #6
  b8:	012e0d00 			; <UNDEFINED> instruction: 0x012e0d00
  bc:	0e03193f 			; <UNDEFINED> instruction: 0x0e03193f
  c0:	0b3b0b3a 	bleq	ec2db0 <shift+0xec2db0>
  c4:	06120111 			; <UNDEFINED> instruction: 0x06120111
  c8:	42961840 	addsmi	r1, r6, #64, 16	; 0x400000
  cc:	00130119 	andseq	r0, r3, r9, lsl r1
  d0:	00340e00 	eorseq	r0, r4, r0, lsl #28
  d4:	0b3a0803 	bleq	e820e8 <shift+0xe820e8>
  d8:	13490b3b 	movtne	r0, #39739	; 0x9b3b
  dc:	00001802 	andeq	r1, r0, r2, lsl #16
  e0:	3f012e0f 	svccc	0x00012e0f
  e4:	3a0e0319 	bcc	380d50 <shift+0x380d50>
  e8:	490b3b0b 	stmdbmi	fp, {r0, r1, r3, r8, r9, fp, ip, sp}
  ec:	12011113 	andne	r1, r1, #-1073741820	; 0xc0000004
  f0:	96184006 	ldrls	r4, [r8], -r6
  f4:	13011942 	movwne	r1, #6466	; 0x1942
  f8:	2e100000 	cdpcs	0, 1, cr0, cr0, cr0, {0}
  fc:	03193f01 	tsteq	r9, #1, 30
 100:	3b0b3a0e 	blcc	2ce940 <shift+0x2ce940>
 104:	3c13490b 			; <UNDEFINED> instruction: 0x3c13490b
 108:	00130119 	andseq	r0, r3, r9, lsl r1
 10c:	00181100 	andseq	r1, r8, r0, lsl #2
 110:	2e120000 	cdpcs	0, 1, cr0, cr2, cr0, {0}
 114:	03193f01 	tsteq	r9, #1, 30
 118:	3b0b3a0e 	blcc	2ce958 <shift+0x2ce958>
 11c:	3c13490b 			; <UNDEFINED> instruction: 0x3c13490b
 120:	13000019 	movwne	r0, #25
 124:	0e03012e 	adfeqsp	f0, f3, #0.5
 128:	0b3b0b3a 	bleq	ec2e18 <shift+0xec2e18>
 12c:	01111927 	tsteq	r1, r7, lsr #18
 130:	18400612 	stmdane	r0, {r1, r4, r9, sl}^
 134:	01194297 			; <UNDEFINED> instruction: 0x01194297
 138:	14000013 	strne	r0, [r0], #-19	; 0xffffffed
 13c:	0e03012e 	adfeqsp	f0, f3, #0.5
 140:	0b3b0b3a 	bleq	ec2e30 <shift+0xec2e30>
 144:	01111927 	tsteq	r1, r7, lsr #18
 148:	18400612 	stmdane	r0, {r1, r4, r9, sl}^
 14c:	00194297 	mulseq	r9, r7, r2
 150:	11010000 	mrsne	r0, (UNDEF: 1)
 154:	130e2501 	movwne	r2, #58625	; 0xe501
 158:	1b0e030b 	blne	380d8c <shift+0x380d8c>
 15c:	1201110e 	andne	r1, r1, #-2147483645	; 0x80000003
 160:	00171006 	andseq	r1, r7, r6
 164:	00240200 	eoreq	r0, r4, r0, lsl #4
 168:	0b3e0b0b 	bleq	f82d9c <shift+0xf82d9c>
 16c:	00000e03 	andeq	r0, r0, r3, lsl #28
 170:	03001603 	movweq	r1, #1539	; 0x603
 174:	3b0b3a0e 	blcc	2ce9b4 <shift+0x2ce9b4>
 178:	0013490b 	andseq	r4, r3, fp, lsl #18
 17c:	000f0400 	andeq	r0, pc, r0, lsl #8
 180:	13490b0b 	movtne	r0, #39691	; 0x9b0b
 184:	26050000 	strcs	r0, [r5], -r0
 188:	00134900 	andseq	r4, r3, r0, lsl #18
 18c:	01010600 	tsteq	r1, r0, lsl #12
 190:	13011349 	movwne	r1, #4937	; 0x1349
 194:	21070000 	mrscs	r0, (UNDEF: 7)
 198:	2f134900 	svccs	0x00134900
 19c:	0800000b 	stmdaeq	r0, {r0, r1, r3}
 1a0:	0e030034 	mcreq	0, 0, r0, cr3, cr4, {1}
 1a4:	0b3b0b3a 	bleq	ec2e94 <shift+0xec2e94>
 1a8:	193f1349 	ldmdbne	pc!, {r0, r3, r6, r8, r9, ip}	; <UNPREDICTABLE>
 1ac:	00001802 	andeq	r1, r0, r2, lsl #16
 1b0:	3f002e09 	svccc	0x00002e09
 1b4:	3a0e0319 	bcc	380e20 <shift+0x380e20>
 1b8:	270b3b0b 	strcs	r3, [fp, -fp, lsl #22]
 1bc:	11134919 	tstne	r3, r9, lsl r9
 1c0:	40061201 	andmi	r1, r6, r1, lsl #4
 1c4:	19429618 	stmdbne	r2, {r3, r4, r9, sl, ip, pc}^
 1c8:	240a0000 	strcs	r0, [sl], #-0
 1cc:	3e0b0b00 	vmlacc.f64	d0, d11, d0
 1d0:	0008030b 	andeq	r0, r8, fp, lsl #6
 1d4:	012e0b00 			; <UNDEFINED> instruction: 0x012e0b00
 1d8:	0e03193f 			; <UNDEFINED> instruction: 0x0e03193f
 1dc:	0b3b0b3a 	bleq	ec2ecc <shift+0xec2ecc>
 1e0:	13491927 	movtne	r1, #39207	; 0x9927
 1e4:	06120111 			; <UNDEFINED> instruction: 0x06120111
 1e8:	42961840 	addsmi	r1, r6, #64, 16	; 0x400000
 1ec:	00130119 	andseq	r0, r3, r9, lsl r1
 1f0:	00050c00 	andeq	r0, r5, r0, lsl #24
 1f4:	0b3a0803 	bleq	e82208 <shift+0xe82208>
 1f8:	13490b3b 	movtne	r0, #39739	; 0x9b3b
 1fc:	00001802 	andeq	r1, r0, r2, lsl #16
 200:	0000180d 	andeq	r1, r0, sp, lsl #16
 204:	00340e00 	eorseq	r0, r4, r0, lsl #28
 208:	0b3a0803 	bleq	e8221c <shift+0xe8221c>
 20c:	13490b3b 	movtne	r0, #39739	; 0x9b3b
 210:	00001802 	andeq	r1, r0, r2, lsl #16
 214:	03012e0f 	movweq	r2, #7695	; 0x1e0f
 218:	3b0b3a0e 	blcc	2cea58 <shift+0x2cea58>
 21c:	4919270b 	ldmdbmi	r9, {r0, r1, r3, r8, r9, sl, sp}
 220:	12011113 	andne	r1, r1, #-1073741820	; 0xc0000004
 224:	96184006 	ldrls	r4, [r8], -r6
 228:	13011942 	movwne	r1, #6466	; 0x1942
 22c:	34100000 	ldrcc	r0, [r0], #-0
 230:	3a0e0300 	bcc	380e38 <shift+0x380e38>
 234:	490b3b0b 	stmdbmi	fp, {r0, r1, r3, r8, r9, fp, ip, sp}
 238:	00180213 	andseq	r0, r8, r3, lsl r2
 23c:	00051100 	andeq	r1, r5, r0, lsl #2
 240:	0b3a0e03 	bleq	e83a54 <shift+0xe83a54>
 244:	13490b3b 	movtne	r0, #39739	; 0x9b3b
 248:	00001802 	andeq	r1, r0, r2, lsl #16
 24c:	03012e12 	movweq	r2, #7698	; 0x1e12
 250:	3b0b3a0e 	blcc	2cea90 <shift+0x2cea90>
 254:	4919270b 	ldmdbmi	r9, {r0, r1, r3, r8, r9, sl, sp}
 258:	12011113 	andne	r1, r1, #-1073741820	; 0xc0000004
 25c:	96184006 	ldrls	r4, [r8], -r6
 260:	00001942 	andeq	r1, r0, r2, asr #18
 264:	01110100 	tsteq	r1, r0, lsl #2
 268:	0b130e25 	bleq	4c3b04 <shift+0x4c3b04>
 26c:	0e1b0e03 	cdpeq	14, 1, cr0, cr11, cr3, {0}
 270:	06120111 			; <UNDEFINED> instruction: 0x06120111
 274:	00001710 	andeq	r1, r0, r0, lsl r7
 278:	0b002402 	bleq	9288 <shift+0x9288>
 27c:	030b3e0b 	movweq	r3, #48651	; 0xbe0b
 280:	0300000e 	movweq	r0, #14
 284:	13490101 	movtne	r0, #37121	; 0x9101
 288:	00001301 	andeq	r1, r0, r1, lsl #6
 28c:	49002104 	stmdbmi	r0, {r2, r8, sp}
 290:	000b2f13 	andeq	r2, fp, r3, lsl pc
 294:	00340500 	eorseq	r0, r4, r0, lsl #10
 298:	0b3a0e03 	bleq	e83aac <shift+0xe83aac>
 29c:	13490b3b 	movtne	r0, #39739	; 0x9b3b
 2a0:	1802193f 	stmdane	r2, {r0, r1, r2, r3, r4, r5, r8, fp, ip}
 2a4:	2e060000 	cdpcs	0, 0, cr0, cr6, cr0, {0}
 2a8:	03193f01 	tsteq	r9, #1, 30
 2ac:	3b0b3a0e 	blcc	2ceaec <shift+0x2ceaec>
 2b0:	4919270b 	ldmdbmi	r9, {r0, r1, r3, r8, r9, sl, sp}
 2b4:	12011113 	andne	r1, r1, #-1073741820	; 0xc0000004
 2b8:	96184006 	ldrls	r4, [r8], -r6
 2bc:	13011942 	movwne	r1, #6466	; 0x1942
 2c0:	34070000 	strcc	r0, [r7], #-0
 2c4:	3a080300 	bcc	200ecc <shift+0x200ecc>
 2c8:	490b3b0b 	stmdbmi	fp, {r0, r1, r3, r8, r9, fp, ip, sp}
 2cc:	00180213 	andseq	r0, r8, r3, lsl r2
 2d0:	00260800 	eoreq	r0, r6, r0, lsl #16
 2d4:	00001349 	andeq	r1, r0, r9, asr #6
 2d8:	0b002409 	bleq	9304 <shift+0x9304>
 2dc:	030b3e0b 	movweq	r3, #48651	; 0xbe0b
 2e0:	0a000008 	beq	308 <shift+0x308>
 2e4:	08030005 	stmdaeq	r3, {r0, r2}
 2e8:	0b3b0b3a 	bleq	ec2fd8 <shift+0xec2fd8>
 2ec:	18021349 	stmdane	r2, {r0, r3, r6, r8, r9, ip}
 2f0:	0b0b0000 	bleq	2c02f8 <shift+0x2c02f8>
 2f4:	12011101 	andne	r1, r1, #1073741824	; 0x40000000
 2f8:	0c000006 	stceq	0, cr0, [r0], {6}
 2fc:	193f012e 	ldmdbne	pc!, {r1, r2, r3, r5, r8}	; <UNPREDICTABLE>
 300:	0b3a0e03 	bleq	e83b14 <shift+0xe83b14>
 304:	13490b3b 	movtne	r0, #39739	; 0x9b3b
 308:	0000193c 	andeq	r1, r0, ip, lsr r9
 30c:	0000180d 	andeq	r1, r0, sp, lsl #16
 310:	000f0e00 	andeq	r0, pc, r0, lsl #28
 314:	13490b0b 	movtne	r0, #39691	; 0x9b0b
 318:	050f0000 	streq	r0, [pc, #-0]	; 320 <shift+0x320>
 31c:	3a0e0300 	bcc	380f24 <shift+0x380f24>
 320:	490b3b0b 	stmdbmi	fp, {r0, r1, r3, r8, r9, fp, ip, sp}
 324:	00180213 	andseq	r0, r8, r3, lsl r2
 328:	00341000 	eorseq	r1, r4, r0
 32c:	0b3a0e03 	bleq	e83b40 <shift+0xe83b40>
 330:	13490b3b 	movtne	r0, #39739	; 0x9b3b
 334:	00001802 	andeq	r1, r0, r2, lsl #16
 338:	03012e11 	movweq	r2, #7697	; 0x1e11
 33c:	3b0b3a0e 	blcc	2ceb7c <shift+0x2ceb7c>
 340:	4919270b 	ldmdbmi	r9, {r0, r1, r3, r8, r9, sl, sp}
 344:	12011113 	andne	r1, r1, #-1073741820	; 0xc0000004
 348:	97184006 	ldrls	r4, [r8, -r6]
 34c:	00001942 	andeq	r1, r0, r2, asr #18
 350:	01110100 	tsteq	r1, r0, lsl #2
 354:	0b130e25 	bleq	4c3bf0 <shift+0x4c3bf0>
 358:	0e1b0e03 	cdpeq	14, 1, cr0, cr11, cr3, {0}
 35c:	06120111 			; <UNDEFINED> instruction: 0x06120111
 360:	00001710 	andeq	r1, r0, r0, lsl r7
 364:	0b011302 	bleq	44f74 <shift+0x44f74>
 368:	3b0b3a0b 	blcc	2ceb9c <shift+0x2ceb9c>
 36c:	0013010b 	andseq	r0, r3, fp, lsl #2
 370:	000d0300 	andeq	r0, sp, r0, lsl #6
 374:	0b3a0e03 	bleq	e83b88 <shift+0xe83b88>
 378:	13490b3b 	movtne	r0, #39739	; 0x9b3b
 37c:	00000b38 	andeq	r0, r0, r8, lsr fp
 380:	03000d04 	movweq	r0, #3332	; 0xd04
 384:	3b0b3a08 	blcc	2cebac <shift+0x2cebac>
 388:	3813490b 	ldmdacc	r3, {r0, r1, r3, r8, fp, lr}
 38c:	0500000b 	streq	r0, [r0, #-11]
 390:	0b0b0024 	bleq	2c0428 <shift+0x2c0428>
 394:	0e030b3e 	vmoveq.16	d3[0], r0
 398:	35060000 	strcc	r0, [r6, #-0]
 39c:	00134900 	andseq	r4, r3, r0, lsl #18
 3a0:	01010700 	tsteq	r1, r0, lsl #14
 3a4:	13011349 	movwne	r1, #4937	; 0x1349
 3a8:	21080000 	mrscs	r0, (UNDEF: 8)
 3ac:	2f134900 	svccs	0x00134900
 3b0:	0900000b 	stmdbeq	r0, {r0, r1, r3}
 3b4:	0e030016 	mcreq	0, 0, r0, cr3, cr6, {0}
 3b8:	0b3b0b3a 	bleq	ec30a8 <shift+0xec30a8>
 3bc:	00001349 	andeq	r1, r0, r9, asr #6
 3c0:	0300340a 	movweq	r3, #1034	; 0x40a
 3c4:	3b0b3a0e 	blcc	2cec04 <shift+0x2cec04>
 3c8:	0213490b 	andseq	r4, r3, #180224	; 0x2c000
 3cc:	0b000018 	bleq	434 <shift+0x434>
 3d0:	0b0b000f 	bleq	2c0414 <shift+0x2c0414>
 3d4:	00001349 	andeq	r1, r0, r9, asr #6
 3d8:	3f012e0c 	svccc	0x00012e0c
 3dc:	3a0e0319 	bcc	381048 <shift+0x381048>
 3e0:	270b3b0b 	strcs	r3, [fp, -fp, lsl #22]
 3e4:	11134919 	tstne	r3, r9, lsl r9
 3e8:	40061201 	andmi	r1, r6, r1, lsl #4
 3ec:	19429718 	stmdbne	r2, {r3, r4, r8, r9, sl, ip, pc}^
 3f0:	00001301 	andeq	r1, r0, r1, lsl #6
 3f4:	0300050d 	movweq	r0, #1293	; 0x50d
 3f8:	3b0b3a0e 	blcc	2cec38 <shift+0x2cec38>
 3fc:	0213490b 	andseq	r4, r3, #180224	; 0x2c000
 400:	0e000018 	mcreq	0, 0, r0, cr0, cr8, {0}
 404:	0b0b0024 	bleq	2c049c <shift+0x2c049c>
 408:	08030b3e 	stmdaeq	r3, {r1, r2, r3, r4, r5, r8, r9, fp}
 40c:	2e0f0000 	cdpcs	0, 0, cr0, cr15, cr0, {0}
 410:	03193f01 	tsteq	r9, #1, 30
 414:	3b0b3a0e 	blcc	2cec54 <shift+0x2cec54>
 418:	1119270b 	tstne	r9, fp, lsl #14
 41c:	40061201 	andmi	r1, r6, r1, lsl #4
 420:	19429618 	stmdbne	r2, {r3, r4, r9, sl, ip, pc}^
 424:	00001301 	andeq	r1, r0, r1, lsl #6
 428:	03000510 	movweq	r0, #1296	; 0x510
 42c:	3b0b3a08 	blcc	2cec54 <shift+0x2cec54>
 430:	0213490b 	andseq	r4, r3, #180224	; 0x2c000
 434:	11000018 	tstne	r0, r8, lsl r0
 438:	13490026 	movtne	r0, #36902	; 0x9026
 43c:	2e120000 	cdpcs	0, 1, cr0, cr2, cr0, {0}
 440:	03193f00 	tsteq	r9, #0, 30
 444:	3b0b3a0e 	blcc	2cec84 <shift+0x2cec84>
 448:	4919270b 	ldmdbmi	r9, {r0, r1, r3, r8, r9, sl, sp}
 44c:	12011113 	andne	r1, r1, #-1073741820	; 0xc0000004
 450:	97184006 	ldrls	r4, [r8, -r6]
 454:	00001942 	andeq	r1, r0, r2, asr #18
 458:	3f012e13 	svccc	0x00012e13
 45c:	3a0e0319 	bcc	3810c8 <shift+0x3810c8>
 460:	270b3b0b 	strcs	r3, [fp, -fp, lsl #22]
 464:	12011119 	andne	r1, r1, #1073741830	; 0x40000006
 468:	97184006 	ldrls	r4, [r8, -r6]
 46c:	13011942 	movwne	r1, #6466	; 0x1942
 470:	2e140000 	cdpcs	0, 1, cr0, cr4, cr0, {0}
 474:	03193f00 	tsteq	r9, #0, 30
 478:	3b0b3a0e 	blcc	2cecb8 <shift+0x2cecb8>
 47c:	1119270b 	tstne	r9, fp, lsl #14
 480:	40061201 	andmi	r1, r6, r1, lsl #4
 484:	19429718 	stmdbne	r2, {r3, r4, r8, r9, sl, ip, pc}^
 488:	01000000 	mrseq	r0, (UNDEF: 0)
 48c:	0e250111 	mcreq	1, 1, r0, cr5, cr1, {0}
 490:	0e030b13 	vmoveq.32	d3[0], r0
 494:	01110e1b 	tsteq	r1, fp, lsl lr
 498:	17100612 			; <UNDEFINED> instruction: 0x17100612
 49c:	16020000 	strne	r0, [r2], -r0
 4a0:	3a0e0300 	bcc	3810a8 <shift+0x3810a8>
 4a4:	490b3b0b 	stmdbmi	fp, {r0, r1, r3, r8, r9, fp, ip, sp}
 4a8:	03000013 	movweq	r0, #19
 4ac:	0b0b0024 	bleq	2c0544 <shift+0x2c0544>
 4b0:	0e030b3e 	vmoveq.16	d3[0], r0
 4b4:	01040000 	mrseq	r0, (UNDEF: 4)
 4b8:	01134901 	tsteq	r3, r1, lsl #18
 4bc:	05000013 	streq	r0, [r0, #-19]	; 0xffffffed
 4c0:	00000021 	andeq	r0, r0, r1, lsr #32
 4c4:	49002606 	stmdbmi	r0, {r1, r2, r9, sl, sp}
 4c8:	07000013 	smladeq	r0, r3, r0, r0
 4cc:	0e030034 	mcreq	0, 0, r0, cr3, cr4, {1}
 4d0:	0b3b0b3a 	bleq	ec31c0 <shift+0xec31c0>
 4d4:	193f1349 	ldmdbne	pc!, {r0, r3, r6, r8, r9, ip}	; <UNPREDICTABLE>
 4d8:	0000193c 	andeq	r1, r0, ip, lsr r9
 4dc:	03011308 	movweq	r1, #4872	; 0x1308
 4e0:	3a0b0b08 	bcc	2c3108 <shift+0x2c3108>
 4e4:	010b3b0b 	tsteq	fp, fp, lsl #22
 4e8:	09000013 	stmdbeq	r0, {r0, r1, r4}
 4ec:	0e03000d 	cdpeq	0, 0, cr0, cr3, cr13, {0}
 4f0:	0b3b0b3a 	bleq	ec31e0 <shift+0xec31e0>
 4f4:	0b381349 	bleq	e05220 <shift+0xe05220>
 4f8:	0f0a0000 	svceq	0x000a0000
 4fc:	490b0b00 	stmdbmi	fp, {r8, r9, fp}
 500:	0b000013 	bleq	554 <shift+0x554>
 504:	0b0b0113 	bleq	2c0958 <shift+0x2c0958>
 508:	0b3b0b3a 	bleq	ec31f8 <shift+0xec31f8>
 50c:	00001301 	andeq	r1, r0, r1, lsl #6
 510:	03000d0c 	movweq	r0, #3340	; 0xd0c
 514:	3b0b3a08 	blcc	2ced3c <shift+0x2ced3c>
 518:	3813490b 	ldmdacc	r3, {r0, r1, r3, r8, fp, lr}
 51c:	0d00000b 	stceq	0, cr0, [r0, #-44]	; 0xffffffd4
 520:	0b0b0024 	bleq	2c05b8 <shift+0x2c05b8>
 524:	08030b3e 	stmdaeq	r3, {r1, r2, r3, r4, r5, r8, r9, fp}
 528:	340e0000 	strcc	r0, [lr], #-0
 52c:	3a0e0300 	bcc	381134 <shift+0x381134>
 530:	490b3b0b 	stmdbmi	fp, {r0, r1, r3, r8, r9, fp, ip, sp}
 534:	02193f13 	andseq	r3, r9, #19, 30	; 0x4c
 538:	0f000018 	svceq	0x00000018
 53c:	193f012e 	ldmdbne	pc!, {r1, r2, r3, r5, r8}	; <UNPREDICTABLE>
 540:	0b3a0e03 	bleq	e83d54 <shift+0xe83d54>
 544:	19270b3b 	stmdbne	r7!, {r0, r1, r3, r4, r5, r8, r9, fp}
 548:	06120111 			; <UNDEFINED> instruction: 0x06120111
 54c:	42961840 	addsmi	r1, r6, #64, 16	; 0x400000
 550:	00130119 	andseq	r0, r3, r9, lsl r1
 554:	00051000 	andeq	r1, r5, r0
 558:	0b3a0803 	bleq	e8256c <shift+0xe8256c>
 55c:	13490b3b 	movtne	r0, #39739	; 0x9b3b
 560:	00001802 	andeq	r1, r0, r2, lsl #16
 564:	03003411 	movweq	r3, #1041	; 0x411
 568:	3b0b3a08 	blcc	2ced90 <shift+0x2ced90>
 56c:	0213490b 	andseq	r4, r3, #180224	; 0x2c000
 570:	12000018 	andne	r0, r0, #24
 574:	0b0b000f 	bleq	2c05b8 <shift+0x2c05b8>
 578:	2e130000 	cdpcs	0, 1, cr0, cr3, cr0, {0}
 57c:	03193f01 	tsteq	r9, #1, 30
 580:	3b0b3a0e 	blcc	2cedc0 <shift+0x2cedc0>
 584:	1113490b 	tstne	r3, fp, lsl #18
 588:	40061201 	andmi	r1, r6, r1, lsl #4
 58c:	19429718 	stmdbne	r2, {r3, r4, r8, r9, sl, ip, pc}^
 590:	00001301 	andeq	r1, r0, r1, lsl #6
 594:	3f012e14 	svccc	0x00012e14
 598:	3a0e0319 	bcc	381204 <shift+0x381204>
 59c:	270b3b0b 	strcs	r3, [fp, -fp, lsl #22]
 5a0:	12011119 	andne	r1, r1, #1073741830	; 0x40000006
 5a4:	97184006 	ldrls	r4, [r8, -r6]
 5a8:	13011942 	movwne	r1, #6466	; 0x1942
 5ac:	2e150000 	cdpcs	0, 1, cr0, cr5, cr0, {0}
 5b0:	03193f01 	tsteq	r9, #1, 30
 5b4:	3b0b3a0e 	blcc	2cedf4 <shift+0x2cedf4>
 5b8:	4919270b 	ldmdbmi	r9, {r0, r1, r3, r8, r9, sl, sp}
 5bc:	00193c13 	andseq	r3, r9, r3, lsl ip
 5c0:	00051600 	andeq	r1, r5, r0, lsl #12
 5c4:	00001349 	andeq	r1, r0, r9, asr #6
 5c8:	00001817 	andeq	r1, r0, r7, lsl r8
 5cc:	11010000 	mrsne	r0, (UNDEF: 1)
 5d0:	130e2501 	movwne	r2, #58625	; 0xe501
 5d4:	1b0e030b 	blne	381208 <shift+0x381208>
 5d8:	1201110e 	andne	r1, r1, #-2147483645	; 0x80000003
 5dc:	00171006 	andseq	r1, r7, r6
 5e0:	00160200 	andseq	r0, r6, r0, lsl #4
 5e4:	0b3a0e03 	bleq	e83df8 <shift+0xe83df8>
 5e8:	13490b3b 	movtne	r0, #39739	; 0x9b3b
 5ec:	24030000 	strcs	r0, [r3], #-0
 5f0:	3e0b0b00 	vmlacc.f64	d0, d11, d0
 5f4:	000e030b 	andeq	r0, lr, fp, lsl #6
 5f8:	01010400 	tsteq	r1, r0, lsl #8
 5fc:	13011349 	movwne	r1, #4937	; 0x1349
 600:	21050000 	mrscs	r0, (UNDEF: 5)
 604:	06000000 	streq	r0, [r0], -r0
 608:	0e030034 	mcreq	0, 0, r0, cr3, cr4, {1}
 60c:	0b3b0b3a 	bleq	ec32fc <shift+0xec32fc>
 610:	193f1349 	ldmdbne	pc!, {r0, r3, r6, r8, r9, ip}	; <UNPREDICTABLE>
 614:	0000193c 	andeq	r1, r0, ip, lsr r9
 618:	03003407 	movweq	r3, #1031	; 0x407
 61c:	3b0b3a0e 	blcc	2cee5c <shift+0x2cee5c>
 620:	3f13490b 	svccc	0x0013490b
 624:	00180219 	andseq	r0, r8, r9, lsl r2
 628:	000f0800 	andeq	r0, pc, r0, lsl #16
 62c:	13490b0b 	movtne	r0, #39691	; 0x9b0b
 630:	13090000 	movwne	r0, #36864	; 0x9000
 634:	0b0e0301 	bleq	381240 <shift+0x381240>
 638:	3b0b3a0b 	blcc	2cee6c <shift+0x2cee6c>
 63c:	0013010b 	andseq	r0, r3, fp, lsl #2
 640:	000d0a00 	andeq	r0, sp, r0, lsl #20
 644:	0b3a0803 	bleq	e82658 <shift+0xe82658>
 648:	13490b3b 	movtne	r0, #39739	; 0x9b3b
 64c:	00000b38 	andeq	r0, r0, r8, lsr fp
 650:	03000d0b 	movweq	r0, #3339	; 0xd0b
 654:	3b0b3a0e 	blcc	2cee94 <shift+0x2cee94>
 658:	3813490b 	ldmdacc	r3, {r0, r1, r3, r8, fp, lr}
 65c:	0c00000b 	stceq	0, cr0, [r0], {11}
 660:	0b0b000f 	bleq	2c06a4 <shift+0x2c06a4>
 664:	240d0000 	strcs	r0, [sp], #-0
 668:	3e0b0b00 	vmlacc.f64	d0, d11, d0
 66c:	0008030b 	andeq	r0, r8, fp, lsl #6
 670:	00210e00 	eoreq	r0, r1, r0, lsl #28
 674:	0b2f1349 	bleq	bc53a0 <shift+0xbc53a0>
 678:	340f0000 	strcc	r0, [pc], #-0	; 680 <shift+0x680>
 67c:	3a0e0300 	bcc	381284 <shift+0x381284>
 680:	490b3b0b 	stmdbmi	fp, {r0, r1, r3, r8, r9, fp, ip, sp}
 684:	00180213 	andseq	r0, r8, r3, lsl r2
 688:	012e1000 			; <UNDEFINED> instruction: 0x012e1000
 68c:	0e03193f 			; <UNDEFINED> instruction: 0x0e03193f
 690:	0b3b0b3a 	bleq	ec3380 <shift+0xec3380>
 694:	13491927 	movtne	r1, #39207	; 0x9927
 698:	06120111 			; <UNDEFINED> instruction: 0x06120111
 69c:	42961840 	addsmi	r1, r6, #64, 16	; 0x400000
 6a0:	00130119 	andseq	r0, r3, r9, lsl r1
 6a4:	00341100 	eorseq	r1, r4, r0, lsl #2
 6a8:	0b3a0803 	bleq	e826bc <shift+0xe826bc>
 6ac:	13490b3b 	movtne	r0, #39739	; 0x9b3b
 6b0:	00001802 	andeq	r1, r0, r2, lsl #16
 6b4:	11010b12 	tstne	r1, r2, lsl fp
 6b8:	00061201 	andeq	r1, r6, r1, lsl #4
 6bc:	002e1300 	eoreq	r1, lr, r0, lsl #6
 6c0:	0e03193f 			; <UNDEFINED> instruction: 0x0e03193f
 6c4:	0b3b0b3a 	bleq	ec33b4 <shift+0xec33b4>
 6c8:	06120111 			; <UNDEFINED> instruction: 0x06120111
 6cc:	42961840 	addsmi	r1, r6, #64, 16	; 0x400000
 6d0:	14000019 	strne	r0, [r0], #-25	; 0xffffffe7
 6d4:	0e03012e 	adfeqsp	f0, f3, #0.5
 6d8:	0b3b0b3a 	bleq	ec33c8 <shift+0xec33c8>
 6dc:	13491927 	movtne	r1, #39207	; 0x9927
 6e0:	06120111 			; <UNDEFINED> instruction: 0x06120111
 6e4:	42961840 	addsmi	r1, r6, #64, 16	; 0x400000
 6e8:	00130119 	andseq	r0, r3, r9, lsl r1
 6ec:	00051500 	andeq	r1, r5, r0, lsl #10
 6f0:	0b3a0e03 	bleq	e83f04 <shift+0xe83f04>
 6f4:	13490b3b 	movtne	r0, #39739	; 0x9b3b
 6f8:	00001802 	andeq	r1, r0, r2, lsl #16
 6fc:	03000516 	movweq	r0, #1302	; 0x516
 700:	3b0b3a08 	blcc	2cef28 <shift+0x2cef28>
 704:	0213490b 	andseq	r4, r3, #180224	; 0x2c000
 708:	17000018 	smladne	r0, r8, r0, r0
 70c:	00000026 	andeq	r0, r0, r6, lsr #32
 710:	03012e18 	movweq	r2, #7704	; 0x1e18
 714:	3b0b3a0e 	blcc	2cef54 <shift+0x2cef54>
 718:	1119270b 	tstne	r9, fp, lsl #14
 71c:	40061201 	andmi	r1, r6, r1, lsl #4
 720:	19429718 	stmdbne	r2, {r3, r4, r8, r9, sl, ip, pc}^
 724:	00001301 	andeq	r1, r0, r1, lsl #6
 728:	03012e19 	movweq	r2, #7705	; 0x1e19
 72c:	3b0b3a0e 	blcc	2cef6c <shift+0x2cef6c>
 730:	1119270b 	tstne	r9, fp, lsl #14
 734:	40061201 	andmi	r1, r6, r1, lsl #4
 738:	19429718 	stmdbne	r2, {r3, r4, r8, r9, sl, ip, pc}^
 73c:	01000000 	mrseq	r0, (UNDEF: 0)
 740:	0e250111 	mcreq	1, 1, r0, cr5, cr1, {0}
 744:	0e030b13 	vmoveq.32	d3[0], r0
 748:	01110e1b 	tsteq	r1, fp, lsl lr
 74c:	17100612 			; <UNDEFINED> instruction: 0x17100612
 750:	16020000 	strne	r0, [r2], -r0
 754:	3a0e0300 	bcc	38135c <shift+0x38135c>
 758:	490b3b0b 	stmdbmi	fp, {r0, r1, r3, r8, r9, fp, ip, sp}
 75c:	03000013 	movweq	r0, #19
 760:	0b0b0024 	bleq	2c07f8 <shift+0x2c07f8>
 764:	0e030b3e 	vmoveq.16	d3[0], r0
 768:	2e040000 	cdpcs	0, 0, cr0, cr4, cr0, {0}
 76c:	03193f01 	tsteq	r9, #1, 30
 770:	3b0b3a0e 	blcc	2cefb0 <shift+0x2cefb0>
 774:	4919270b 	ldmdbmi	r9, {r0, r1, r3, r8, r9, sl, sp}
 778:	12011113 	andne	r1, r1, #-1073741820	; 0xc0000004
 77c:	97184006 	ldrls	r4, [r8, -r6]
 780:	13011942 	movwne	r1, #6466	; 0x1942
 784:	05050000 	streq	r0, [r5, #-0]
 788:	3a080300 	bcc	201390 <shift+0x201390>
 78c:	490b3b0b 	stmdbmi	fp, {r0, r1, r3, r8, r9, fp, ip, sp}
 790:	00180213 	andseq	r0, r8, r3, lsl r2
 794:	00340600 	eorseq	r0, r4, r0, lsl #12
 798:	0b3a0803 	bleq	e827ac <shift+0xe827ac>
 79c:	13490b3b 	movtne	r0, #39739	; 0x9b3b
 7a0:	00001802 	andeq	r1, r0, r2, lsl #16
 7a4:	0b000f07 	bleq	43c8 <shift+0x43c8>
 7a8:	0800000b 	stmdaeq	r0, {r0, r1, r3}
 7ac:	0b0b0024 	bleq	2c0844 <shift+0x2c0844>
 7b0:	08030b3e 	stmdaeq	r3, {r1, r2, r3, r4, r5, r8, r9, fp}
 7b4:	0f090000 	svceq	0x00090000
 7b8:	490b0b00 	stmdbmi	fp, {r8, r9, fp}
 7bc:	00000013 	andeq	r0, r0, r3, lsl r0
 7c0:	25011101 	strcs	r1, [r1, #-257]	; 0xfffffeff
 7c4:	030b130e 	movweq	r1, #45838	; 0xb30e
 7c8:	110e1b0e 	tstne	lr, lr, lsl #22
 7cc:	10061201 	andne	r1, r6, r1, lsl #4
 7d0:	02000017 	andeq	r0, r0, #23
 7d4:	0b0b0024 	bleq	2c086c <shift+0x2c086c>
 7d8:	0e030b3e 	vmoveq.16	d3[0], r0
 7dc:	2e030000 	cdpcs	0, 0, cr0, cr3, cr0, {0}
 7e0:	03193f00 	tsteq	r9, #0, 30
 7e4:	3b0b3a0e 	blcc	2cf024 <shift+0x2cf024>
 7e8:	1201110b 	andne	r1, r1, #-1073741822	; 0xc0000002
 7ec:	96184006 	ldrls	r4, [r8], -r6
 7f0:	00001942 	andeq	r1, r0, r2, asr #18
 7f4:	01110100 	tsteq	r1, r0, lsl #2
 7f8:	0b130e25 	bleq	4c4094 <shift+0x4c4094>
 7fc:	0e1b0e03 	cdpeq	14, 1, cr0, cr11, cr3, {0}
 800:	06120111 			; <UNDEFINED> instruction: 0x06120111
 804:	00001710 	andeq	r1, r0, r0, lsl r7
 808:	03001602 	movweq	r1, #1538	; 0x602
 80c:	3b0b3a0e 	blcc	2cf04c <shift+0x2cf04c>
 810:	0013490b 	andseq	r4, r3, fp, lsl #18
 814:	00240300 	eoreq	r0, r4, r0, lsl #6
 818:	0b3e0b0b 	bleq	f8344c <shift+0xf8344c>
 81c:	00000e03 	andeq	r0, r0, r3, lsl #28
 820:	3f012e04 	svccc	0x00012e04
 824:	3a0e0319 	bcc	381490 <shift+0x381490>
 828:	270b3b0b 	strcs	r3, [fp, -fp, lsl #22]
 82c:	12011119 	andne	r1, r1, #1073741830	; 0x40000006
 830:	96184006 	ldrls	r4, [r8], -r6
 834:	13011942 	movwne	r1, #6466	; 0x1942
 838:	05050000 	streq	r0, [r5, #-0]
 83c:	3a0e0300 	bcc	381444 <shift+0x381444>
 840:	490b3b0b 	stmdbmi	fp, {r0, r1, r3, r8, r9, fp, ip, sp}
 844:	00180213 	andseq	r0, r8, r3, lsl r2
 848:	00340600 	eorseq	r0, r4, r0, lsl #12
 84c:	0b3a0803 	bleq	e82860 <shift+0xe82860>
 850:	13490b3b 	movtne	r0, #39739	; 0x9b3b
 854:	00000b1c 	andeq	r0, r0, ip, lsl fp
 858:	3f012e07 	svccc	0x00012e07
 85c:	3a0e0319 	bcc	3814c8 <shift+0x3814c8>
 860:	270b3b0b 	strcs	r3, [fp, -fp, lsl #22]
 864:	3c134919 			; <UNDEFINED> instruction: 0x3c134919
 868:	08000019 	stmdaeq	r0, {r0, r3, r4}
 86c:	13490005 	movtne	r0, #36869	; 0x9005
 870:	18090000 	stmdane	r9, {}	; <UNPREDICTABLE>
 874:	0a000000 	beq	87c <shift+0x87c>
 878:	0b0b0024 	bleq	2c0910 <shift+0x2c0910>
 87c:	08030b3e 	stmdaeq	r3, {r1, r2, r3, r4, r5, r8, r9, fp}
 880:	0f0b0000 	svceq	0x000b0000
 884:	490b0b00 	stmdbmi	fp, {r8, r9, fp}
 888:	0c000013 	stceq	0, cr0, [r0], {19}
 88c:	13490026 	movtne	r0, #36902	; 0x9026
 890:	01000000 	mrseq	r0, (UNDEF: 0)
 894:	06100011 			; <UNDEFINED> instruction: 0x06100011
 898:	01120111 	tsteq	r2, r1, lsl r1
 89c:	081b0803 	ldmdaeq	fp, {r0, r1, fp}
 8a0:	05130825 	ldreq	r0, [r3, #-2085]	; 0xfffff7db
 8a4:	01000000 	mrseq	r0, (UNDEF: 0)
 8a8:	06100011 			; <UNDEFINED> instruction: 0x06100011
 8ac:	01120111 	tsteq	r2, r1, lsl r1
 8b0:	081b0803 	ldmdaeq	fp, {r0, r1, fp}
 8b4:	05130825 	ldreq	r0, [r3, #-2085]	; 0xfffff7db
 8b8:	01000000 	mrseq	r0, (UNDEF: 0)
 8bc:	06100011 			; <UNDEFINED> instruction: 0x06100011
 8c0:	01120111 	tsteq	r2, r1, lsl r1
 8c4:	081b0803 	ldmdaeq	fp, {r0, r1, fp}
 8c8:	05130825 	ldreq	r0, [r3, #-2085]	; 0xfffff7db
 8cc:	Address 0x00000000000008cc is out of bounds.


Disassembly of section .debug_aranges:

00000000 <.debug_aranges>:
   0:	0000001c 	andeq	r0, r0, ip, lsl r0
   4:	00000002 	andeq	r0, r0, r2
   8:	00040000 	andeq	r0, r4, r0
   c:	00000000 	andeq	r0, r0, r0
  10:	80100000 	andshi	r0, r0, r0
  14:	00000070 	andeq	r0, r0, r0, ror r0
	...
  20:	0000001c 	andeq	r0, r0, ip, lsl r0
  24:	00690002 	rsbeq	r0, r9, r2
  28:	00040000 	andeq	r0, r4, r0
  2c:	00000000 	andeq	r0, r0, r0
  30:	80100070 	andshi	r0, r0, r0, ror r0
  34:	000000f0 	strdeq	r0, [r0], -r0	; <UNPREDICTABLE>
	...
  40:	0000001c 	andeq	r0, r0, ip, lsl r0
  44:	01fd0002 	mvnseq	r0, r2
  48:	00040000 	andeq	r0, r4, r0
  4c:	00000000 	andeq	r0, r0, r0
  50:	80100160 	andshi	r0, r0, r0, ror #2
  54:	000003ca 	andeq	r0, r0, sl, asr #7
	...
  60:	0000001c 	andeq	r0, r0, ip, lsl r0
  64:	041a0002 	ldreq	r0, [sl], #-2
  68:	00040000 	andeq	r0, r4, r0
  6c:	00000000 	andeq	r0, r0, r0
  70:	8010052c 	andshi	r0, r0, ip, lsr #10
  74:	00000222 	andeq	r0, r0, r2, lsr #4
	...
  80:	0000001c 	andeq	r0, r0, ip, lsl r0
  84:	06240002 	strteq	r0, [r4], -r2
  88:	00040000 	andeq	r0, r4, r0
  8c:	00000000 	andeq	r0, r0, r0
  90:	8010074e 	andshi	r0, r0, lr, asr #14
  94:	00000196 	muleq	r0, r6, r1
	...
  a0:	0000001c 	andeq	r0, r0, ip, lsl r0
  a4:	08500002 	ldmdaeq	r0, {r1}^
  a8:	00040000 	andeq	r0, r4, r0
  ac:	00000000 	andeq	r0, r0, r0
  b0:	801008e4 	andshi	r0, r0, r4, ror #17
  b4:	00000114 	andeq	r0, r0, r4, lsl r1
	...
  c0:	0000001c 	andeq	r0, r0, ip, lsl r0
  c4:	0a1c0002 	beq	7000d4 <shift+0x7000d4>
  c8:	00040000 	andeq	r0, r4, r0
  cc:	00000000 	andeq	r0, r0, r0
  d0:	801009f8 			; <UNDEFINED> instruction: 0x801009f8
  d4:	0000027c 	andeq	r0, r0, ip, ror r2
	...
  e0:	0000001c 	andeq	r0, r0, ip, lsl r0
  e4:	0cf70002 	ldcleq	0, cr0, [r7], #8
  e8:	00040000 	andeq	r0, r4, r0
  ec:	00000000 	andeq	r0, r0, r0
  f0:	80100c74 	andshi	r0, r0, r4, ror ip
  f4:	0000003e 	andeq	r0, r0, lr, lsr r0
	...
 100:	0000001c 	andeq	r0, r0, ip, lsl r0
 104:	0d9f0002 	ldceq	0, cr0, [pc, #8]	; 114 <shift+0x114>
 108:	00040000 	andeq	r0, r4, r0
 10c:	00000000 	andeq	r0, r0, r0
 110:	80100cb2 			; <UNDEFINED> instruction: 0x80100cb2
 114:	00000028 	andeq	r0, r0, r8, lsr #32
	...
 120:	0000001c 	andeq	r0, r0, ip, lsl r0
 124:	0dfc0002 	ldcleq	0, cr0, [ip, #8]!
 128:	00040000 	andeq	r0, r4, r0
 12c:	00000000 	andeq	r0, r0, r0
 130:	80100cda 			; <UNDEFINED> instruction: 0x80100cda
 134:	00000024 	andeq	r0, r0, r4, lsr #32
	...
 140:	0000001c 	andeq	r0, r0, ip, lsl r0
 144:	0e9b0002 	cdpeq	0, 9, cr0, cr11, cr2, {0}
 148:	00040000 	andeq	r0, r4, r0
 14c:	00000000 	andeq	r0, r0, r0
 150:	80100d00 	andshi	r0, r0, r0, lsl #26
 154:	00000028 	andeq	r0, r0, r8, lsr #32
	...
 160:	0000001c 	andeq	r0, r0, ip, lsl r0
 164:	0f040002 	svceq	0x00040002
 168:	00040000 	andeq	r0, r4, r0
 16c:	00000000 	andeq	r0, r0, r0
 170:	80100d28 	andshi	r0, r0, r8, lsr #26
 174:	00000276 	andeq	r0, r0, r6, ror r2
	...
 180:	0000001c 	andeq	r0, r0, ip, lsl r0
 184:	10c30002 	sbcne	r0, r3, r2
 188:	00040000 	andeq	r0, r4, r0
 18c:	00000000 	andeq	r0, r0, r0
 190:	80100fa0 	andshi	r0, r0, r0, lsr #31
 194:	0000000c 	andeq	r0, r0, ip
	...

Disassembly of section .debug_str:

00000000 <.debug_str>:
   0:	61657263 	cmnvs	r5, r3, ror #4
   4:	6e655f74 	mcrvs	15, 3, r5, cr5, cr4, {3}
   8:	00797274 	rsbseq	r7, r9, r4, ror r2
   c:	69736e75 	ldmdbvs	r3!, {r0, r2, r4, r5, r6, r9, sl, fp, sp, lr}^
  10:	64656e67 	strbtvs	r6, [r5], #-3687	; 0xfffff199
  14:	61686320 	cmnvs	r8, r0, lsr #6
  18:	68730072 	ldmdavs	r3!, {r1, r4, r5, r6}^
  1c:	2074726f 	rsbscs	r7, r4, pc, ror #4
  20:	69736e75 	ldmdbvs	r3!, {r0, r2, r4, r5, r6, r9, sl, fp, sp, lr}^
  24:	64656e67 	strbtvs	r6, [r5], #-3687	; 0xfffff199
  28:	746e6920 	strbtvc	r6, [lr], #-2336	; 0xfffff6e0
  2c:	6e6d2f00 	cdpvs	15, 6, cr2, cr13, cr0, {0}
  30:	2f632f74 	svccs	0x00632f74
  34:	72657355 	rsbvc	r7, r5, #1409286145	; 0x54000001
  38:	38322f73 	ldmdacc	r2!, {r0, r1, r4, r5, r6, r8, r9, sl, fp, sp}
  3c:	2f343532 	svccs	0x00343532
  40:	6b736544 	blvs	1cd9558 <shift+0x1cd9558>
  44:	2f706f74 	svccs	0x00706f74
  48:	656c6966 	strbvs	r6, [ip, #-2406]!	; 0xfffff69a
  4c:	6f72502f 	svcvs	0x0072502f
  50:	6d617267 	sfmvs	f7, 2, [r1, #-412]!	; 0xfffffe64
  54:	00534f2f 	subseq	r4, r3, pc, lsr #30
  58:	616d766b 	cmnvs	sp, fp, ror #12
  5c:	636f6c6c 	cmnvs	pc, #108, 24	; 0x6c00
  60:	65647000 	strbvs	r7, [r4, #-0]!
  64:	6d00745f 	cfstrsvs	mvf7, [r0, #-380]	; 0xfffffe84
  68:	006e6961 	rsbeq	r6, lr, r1, ror #18
  6c:	654b2f2e 	strbvs	r2, [fp, #-3886]	; 0xfffff0d2
  70:	6c656e72 	stclvs	14, cr6, [r5], #-456	; 0xfffffe38
  74:	69616d2f 	stmdbvs	r1!, {r0, r1, r2, r3, r5, r8, sl, fp, sp, lr}^
  78:	00632e6e 	rsbeq	r2, r3, lr, ror #28
  7c:	6e72654b 	cdpvs	5, 7, cr6, cr2, cr11, {2}
  80:	655f6c65 	ldrbvs	r6, [pc, #-3173]	; fffff423 <Kernel_end+0x7fbff423>
  84:	4700646e 	strmi	r6, [r0, -lr, ror #8]
  88:	4320554e 			; <UNDEFINED> instruction: 0x4320554e
  8c:	36203131 			; <UNDEFINED> instruction: 0x36203131
  90:	312e322e 			; <UNDEFINED> instruction: 0x312e322e
  94:	31303220 	teqcc	r0, r0, lsr #4
  98:	31303136 	teqcc	r0, r6, lsr r1
  9c:	6d2d2036 	stcvs	0, cr2, [sp, #-216]!	; 0xffffff28
  a0:	68637261 	stmdavs	r3!, {r0, r5, r6, r9, ip, sp, lr}^
  a4:	6d72613d 	ldfvse	f6, [r2, #-244]!	; 0xffffff0c
  a8:	612d3776 			; <UNDEFINED> instruction: 0x612d3776
  ac:	746d2d20 	strbtvc	r2, [sp], #-3360	; 0xfffff2e0
  b0:	3d656e75 	stclcc	14, cr6, [r5, #-468]!	; 0xfffffe2c
  b4:	74726f63 	ldrbtvc	r6, [r2], #-3939	; 0xfffff09d
  b8:	612d7865 			; <UNDEFINED> instruction: 0x612d7865
  bc:	6d2d2039 	stcvs	0, cr2, [sp, #-228]!	; 0xffffff1c
  c0:	616f6c66 	cmnvs	pc, r6, ror #24
  c4:	62612d74 	rsbvs	r2, r1, #116, 26	; 0x1d00
  c8:	61683d69 	cmnvs	r8, r9, ror #26
  cc:	2d206472 	cfstrscs	mvf6, [r0, #-456]!	; 0xfffffe38
  d0:	7570666d 	ldrbvc	r6, [r0, #-1645]!	; 0xfffff993
  d4:	7066763d 	rsbvc	r7, r6, sp, lsr r6
  d8:	642d3376 	strtvs	r3, [sp], #-886	; 0xfffffc8a
  dc:	2d203631 	stccs	6, cr3, [r0, #-196]!	; 0xffffff3c
  e0:	7568746d 	strbvc	r7, [r8, #-1133]!	; 0xfffffb93
  e4:	2d20626d 	sfmcs	f6, 4, [r0, #-436]!	; 0xfffffe4c
  e8:	736c746d 	cmnvc	ip, #1828716544	; 0x6d000000
  ec:	6169642d 	cmnvs	r9, sp, lsr #8
  f0:	7463656c 	strbtvc	r6, [r3], #-1388	; 0xfffffa94
  f4:	756e673d 	strbvc	r6, [lr, #-1853]!	; 0xfffff8c3
  f8:	00672d20 	rsbeq	r2, r7, r0, lsr #26
  fc:	74696e69 	strbtvc	r6, [r9], #-3689	; 0xfffff197
 100:	6761705f 			; <UNDEFINED> instruction: 0x6761705f
 104:	69730065 	ldmdbvs	r3!, {r0, r2, r5, r6}^
 108:	7974657a 	ldmdbvc	r4!, {r1, r3, r4, r5, r6, r8, sl, sp, lr}^
 10c:	6d006570 	cfstr32vs	mvfx6, [r0, #-448]	; 0xfffffe40
 110:	0065646f 	rsbeq	r6, r5, pc, ror #8
 114:	6e616863 	cdpvs	8, 6, cr6, cr1, cr3, {3}
 118:	705f6567 	subsvc	r6, pc, r7, ror #10
 11c:	5f656761 	svcpl	0x00656761
 120:	72646461 	rsbvc	r6, r4, #1627389952	; 0x61000000
 124:	646e6900 	strbtvs	r6, [lr], #-2304	; 0xfffff700
 128:	6b007865 	blvs	1e2c4 <shift+0x1e2c4>
 12c:	74696e69 	strbtvc	r6, [r9], #-3689	; 0xfffff197
 130:	6e650031 	mcrvs	0, 3, r0, cr5, cr1, {1}
 134:	5f726574 	svcpl	0x00726574
 138:	70617274 	rsbvc	r7, r1, r4, ror r2
 13c:	752f2e00 	strvc	r2, [pc, #-3584]!	; fffff344 <Kernel_end+0x7fbff344>
 140:	2f747261 	svccs	0x00747261
 144:	705f796d 	subsvc	r7, pc, sp, ror #18
 148:	746e6972 	strbtvc	r6, [lr], #-2418	; 0xfffff68e
 14c:	00632e66 	rsbeq	r2, r3, r6, ror #28
 150:	5f74756f 	svcpl	0x0074756f
 154:	006d756e 	rsbeq	r7, sp, lr, ror #10
 158:	6e756f63 	cdpvs	15, 7, cr6, cr5, cr3, {3}
 15c:	796d0074 	stmdbvc	sp!, {r2, r4, r5, r6}^
 160:	7270765f 	rsbsvc	r7, r0, #99614720	; 0x5f00000
 164:	66746e69 	ldrbtvs	r6, [r4], -r9, ror #28
 168:	5f617600 	svcpl	0x00617600
 16c:	7473696c 	ldrbtvc	r6, [r3], #-2412	; 0xfffff694
 170:	73616200 	cmnvc	r1, #0, 4
 174:	656c0065 	strbvs	r0, [ip, #-101]!	; 0xffffff9b
 178:	6d006461 	cfstrsvs	mvf6, [r0, #-388]	; 0xfffffe7c
 17c:	69777861 	ldmdbvs	r7!, {r0, r5, r6, fp, ip, sp, lr}^
 180:	00687464 	rsbeq	r7, r8, r4, ror #8
 184:	676e6f6c 	strbvs	r6, [lr, -ip, ror #30]!
 188:	736e7520 	cmnvc	lr, #32, 10	; 0x8000000
 18c:	656e6769 	strbvs	r6, [lr, #-1897]!	; 0xfffff897
 190:	6e692064 	cdpvs	0, 6, cr2, cr9, cr4, {3}
 194:	756f0074 	strbvc	r0, [pc, #-116]!	; 128 <shift+0x128>
 198:	6f006374 	svcvs	0x00006374
 19c:	00737475 	rsbseq	r7, r3, r5, ror r4
 1a0:	676e6f6c 	strbvs	r6, [lr, -ip, ror #30]!
 1a4:	746e6920 	strbtvc	r6, [lr], #-2336	; 0xfffff6e0
 1a8:	78656800 	stmdavc	r5!, {fp, sp, lr}^
 1ac:	6261745f 	rsbvs	r7, r1, #1593835520	; 0x5f000000
 1b0:	5f796d00 	svcpl	0x00796d00
 1b4:	6e697270 	mcrvs	2, 3, r7, cr9, cr0, {3}
 1b8:	745f6674 	ldrbvc	r6, [pc], #-1652	; 1c0 <shift+0x1c0>
 1bc:	00747365 	rsbseq	r7, r4, r5, ror #6
 1c0:	5f746567 	svcpl	0x00746567
 1c4:	00746e69 	rsbseq	r6, r4, r9, ror #28
 1c8:	5f746567 	svcpl	0x00746567
 1cc:	746e6975 	strbtvc	r6, [lr], #-2421	; 0xfffff68b
 1d0:	6d697300 	stclvs	3, cr7, [r9, #-0]
 1d4:	5f656c70 	svcpl	0x00656c70
 1d8:	74727473 	ldrbtvc	r7, [r2], #-1139	; 0xfffffb8d
 1dc:	006c756f 	rsbeq	r7, ip, pc, ror #10
 1e0:	756c6176 	strbvc	r6, [ip, #-374]!	; 0xfffffe8a
 1e4:	69730065 	ldmdbvs	r3!, {r0, r2, r5, r6}^
 1e8:	656c706d 	strbvs	r7, [ip, #-109]!	; 0xffffff93
 1ec:	7274735f 	rsbsvc	r7, r4, #2080374785	; 0x7c000001
 1f0:	006c6f74 	rsbeq	r6, ip, r4, ror pc
 1f4:	6f745f5f 	svcvs	0x00745f5f
 1f8:	65707075 	ldrbvs	r7, [r0, #-117]!	; 0xffffff8b
 1fc:	2f2e0072 	svccs	0x002e0072
 200:	74726175 	ldrbtvc	r6, [r2], #-373	; 0xfffffe8b
 204:	7274732f 	rsbsvc	r7, r4, #-1140850688	; 0xbc000000
 208:	5f676e69 	svcpl	0x00676e69
 20c:	6c697475 	cfstrdvs	mvd7, [r9], #-468	; 0xfffffe2c
 210:	00632e73 	rsbeq	r2, r3, r3, ror lr
 214:	73746567 	cmnvc	r4, #432013312	; 0x19c00000
 218:	74654700 	strbtvc	r4, [r5], #-1792	; 0xfffff900
 21c:	72616843 	rsbvc	r6, r1, #4390912	; 0x430000
 220:	73657200 	cmnvc	r5, #0, 4
 224:	00746c75 	rsbseq	r6, r4, r5, ror ip
 228:	70646e65 	rsbvc	r6, r4, r5, ror #28
 22c:	74635f00 	strbtvc	r5, [r3], #-3840	; 0xfffff100
 230:	00657079 	rsbeq	r7, r5, r9, ror r0
 234:	32525355 	subscc	r5, r2, #1409286145	; 0x54000001
 238:	53455500 	movtpl	r5, #21760	; 0x5500
 23c:	69730043 	ldmdbvs	r3!, {r0, r1, r6}^
 240:	6d756e67 	ldclvs	14, cr6, [r5, #-412]!	; 0xfffffe64
 244:	49545500 	ldmdbmi	r4, {r8, sl, ip, lr}^
 248:	4f49004d 	svcmi	0x0049004d
 24c:	4358554d 	cmpmi	r8, #322961408	; 0x13400000
 250:	5f57535f 	svcpl	0x0057535f
 254:	5f58554d 	svcpl	0x0058554d
 258:	5f4c5443 	svcpl	0x004c5443
 25c:	5f444150 	svcpl	0x00444150
 260:	54524155 	ldrbpl	r4, [r2], #-341	; 0xfffffeab
 264:	58545f31 	ldmdapl	r4, {r0, r4, r5, r8, r9, sl, fp, ip, lr}^
 268:	5441445f 	strbpl	r4, [r1], #-1119	; 0xfffffba1
 26c:	42550041 	subsmi	r0, r5, #65	; 0x41
 270:	52004352 	andpl	r4, r0, #1207959553	; 0x48000001
 274:	52455345 	subpl	r5, r5, #335544321	; 0x14000001
 278:	5f444556 	svcpl	0x00444556
 27c:	52550030 	subspl	r0, r5, #48	; 0x30
 280:	55004458 	strpl	r4, [r0, #-1112]	; 0xfffffba8
 284:	00524346 	subseq	r4, r2, r6, asr #6
 288:	61752f2e 	cmnvs	r5, lr, lsr #30
 28c:	752f7472 	strvc	r7, [pc, #-1138]!	; fffffe22 <Kernel_end+0x7fbffe22>
 290:	2e747261 	cdpcs	2, 7, cr7, cr4, cr1, {3}
 294:	42550063 	subsmi	r0, r5, #99	; 0x63
 298:	5500524d 	strpl	r5, [r0, #-589]	; 0xfffffdb3
 29c:	0052434d 	subseq	r4, r2, sp, asr #6
 2a0:	31524355 	cmpcc	r2, r5, asr r3
 2a4:	52435500 	subpl	r5, r3, #0, 10
 2a8:	43550032 	cmpmi	r5, #50	; 0x32
 2ac:	55003352 	strpl	r3, [r0, #-850]	; 0xfffffcae
 2b0:	00345243 	eorseq	r5, r4, r3, asr #4
 2b4:	52494255 	subpl	r4, r9, #1342177285	; 0x50000005
 2b8:	454e4f00 	strbmi	r4, [lr, #-3840]	; 0xfffff100
 2bc:	5000534d 	andpl	r5, r0, sp, asr #6
 2c0:	68437475 	stmdavs	r3, {r0, r2, r4, r5, r6, sl, ip, sp, lr}^
 2c4:	72007261 	andvc	r7, r0, #268435462	; 0x10000006
 2c8:	65736961 	ldrbvs	r6, [r3, #-2401]!	; 0xfffff69f
 2cc:	72615500 	rsbvc	r5, r1, #0, 10
 2d0:	6e495f74 	mcrvs	15, 2, r5, cr9, cr4, {3}
 2d4:	49007469 	stmdbmi	r0, {r0, r3, r5, r6, sl, ip, sp, lr}
 2d8:	58554d4f 	ldmdapl	r5, {r0, r1, r2, r3, r6, r8, sl, fp, lr}^
 2dc:	41555f43 	cmpmi	r5, r3, asr #30
 2e0:	5f315452 	svcpl	0x00315452
 2e4:	445f5852 	ldrbmi	r5, [pc], #-2130	; 2ec <shift+0x2ec>
 2e8:	5f415441 	svcpl	0x00415441
 2ec:	454c4553 	strbmi	r4, [ip, #-1363]	; 0xfffffaad
 2f0:	495f5443 	ldmdbmi	pc, {r0, r1, r6, sl, ip, lr}^	; <UNPREDICTABLE>
 2f4:	5455504e 	ldrbpl	r5, [r5], #-78	; 0xffffffb2
 2f8:	58545500 	ldmdapl	r4, {r8, sl, ip, lr}^
 2fc:	4f490044 	svcmi	0x00490044
 300:	4358554d 	cmpmi	r8, #322961408	; 0x13400000
 304:	5f57535f 	svcpl	0x0057535f
 308:	5f58554d 	svcpl	0x0058554d
 30c:	5f4c5443 	svcpl	0x004c5443
 310:	5f444150 	svcpl	0x00444150
 314:	54524155 	ldrbpl	r4, [r2], #-341	; 0xfffffeab
 318:	58525f31 	ldmdapl	r2, {r0, r4, r5, r8, r9, sl, fp, ip, lr}^
 31c:	5441445f 	strbpl	r4, [r1], #-1119	; 0xfffffba1
 320:	75500041 	ldrbvc	r0, [r0, #-65]	; 0xffffffbf
 324:	72745374 	rsbsvc	r5, r4, #116, 6	; 0xd0000001
 328:	53455200 	movtpl	r5, #20992	; 0x5200
 32c:	45565245 	ldrbmi	r5, [r6, #-581]	; 0xfffffdbb
 330:	00315f44 	eorseq	r5, r1, r4, asr #30
 334:	54524155 	ldrbpl	r4, [r2], #-341	; 0xfffffeab
 338:	7079545f 	rsbsvc	r5, r9, pc, asr r4
 33c:	53550065 	cmppl	r5, #101	; 0x65
 340:	6b003152 	blvs	c890 <shift+0xc890>
 344:	6f6c6c61 	svcvs	0x006c6c61
 348:	6d6b0063 	stclvs	0, cr0, [fp, #-396]!	; 0xfffffe74
 34c:	6b006d65 	blvs	1b8e8 <shift+0x1b8e8>
 350:	74696e69 	strbtvc	r6, [r9], #-3689	; 0xfffff197
 354:	2f2e0032 	svccs	0x002e0032
 358:	6f6d654d 	svcvs	0x006d654d
 35c:	4d5f7972 	vldrmi.16	s15, [pc, #-228]	; 280 <shift+0x280>	; <UNPREDICTABLE>
 360:	67616e61 	strbvs	r6, [r1, -r1, ror #28]!
 364:	616b2f65 	cmnvs	fp, r5, ror #30
 368:	636f6c6c 	cmnvs	pc, #108, 24	; 0x6c00
 36c:	6600632e 	strvs	r6, [r0], -lr, lsr #6
 370:	72656572 	rsbvc	r6, r5, #478150656	; 0x1c800000
 374:	65676e61 	strbvs	r6, [r7, #-3681]!	; 0xfffff19f
 378:	65726600 	ldrbvs	r6, [r2, #-1536]!	; 0xfffffa00
 37c:	73696c65 	cmnvc	r9, #25856	; 0x6500
 380:	666b0074 			; <UNDEFINED> instruction: 0x666b0074
 384:	00656572 	rsbeq	r6, r5, r2, ror r5
 388:	7478656e 	ldrbtvc	r6, [r8], #-1390	; 0xfffffa92
 38c:	73616c00 	cmnvc	r1, #0, 24
 390:	61640074 	smcvs	16388	; 0x4004
 394:	735f6174 	cmpvc	pc, #116, 2
 398:	74726174 	ldrbtvc	r6, [r2], #-372	; 0xfffffe8c
 39c:	74657300 	strbtvc	r7, [r5], #-768	; 0xfffffd00
 3a0:	766b7075 			; <UNDEFINED> instruction: 0x766b7075
 3a4:	6f72006d 	svcvs	0x0072006d
 3a8:	61746164 	cmnvs	r4, r4, ror #2
 3ac:	646e655f 	strbtvs	r6, [lr], #-1375	; 0xfffffaa1
 3b0:	70616d00 	rsbvc	r6, r1, r0, lsl #26
 3b4:	65676170 	strbvs	r6, [r7, #-368]!	; 0xfffffe90
 3b8:	6f6e0073 	svcvs	0x006e0073
 3bc:	00677077 	rsbeq	r7, r7, r7, ror r0
 3c0:	657a6973 	ldrbvs	r6, [sl, #-2419]!	; 0xfffff68d
 3c4:	6c617700 	stclvs	7, cr7, [r1], #-0
 3c8:	6467706b 	strbtvs	r7, [r7], #-107	; 0xffffff95
 3cc:	70007269 	andvc	r7, r0, r9, ror #4
 3d0:	62617467 	rsbvs	r7, r1, #1728053248	; 0x67000000
 3d4:	616d6b00 	cmnvs	sp, r0, lsl #22
 3d8:	77730070 			; <UNDEFINED> instruction: 0x77730070
 3dc:	68637469 	stmdavs	r3!, {r0, r3, r5, r6, sl, ip, sp, lr}^
 3e0:	006d766b 	rsbeq	r7, sp, fp, ror #12
 3e4:	654d2f2e 	strbvs	r2, [sp, #-3886]	; 0xfffff0d2
 3e8:	79726f6d 	ldmdbvc	r2!, {r0, r2, r3, r5, r6, r8, r9, sl, fp, sp, lr}^
 3ec:	6e614d5f 	mcrvs	13, 3, r4, cr1, cr15, {2}
 3f0:	2f656761 	svccs	0x00656761
 3f4:	632e6d76 			; <UNDEFINED> instruction: 0x632e6d76
 3f8:	472f2e00 	strmi	r2, [pc, -r0, lsl #28]!
 3fc:	72656e65 	rsbvc	r6, r5, #1616	; 0x650
 400:	732f6c61 			; <UNDEFINED> instruction: 0x732f6c61
 404:	6e697274 	mcrvs	2, 3, r7, cr9, cr4, {3}
 408:	00632e67 	rsbeq	r2, r3, r7, ror #28
 40c:	736d656d 	cmnvc	sp, #457179136	; 0x1b400000
 410:	2e007465 	cdpcs	4, 0, cr7, cr0, cr5, {3}
 414:	6e65472f 	cdpvs	7, 6, cr4, cr5, cr15, {1}
 418:	6c617265 	sfmvs	f7, 2, [r1], #-404	; 0xfffffe6c
 41c:	6972702f 	ldmdbvs	r2!, {r0, r1, r2, r3, r5, ip, sp, lr}^
 420:	745f746e 	ldrbvc	r7, [pc], #-1134	; 428 <shift+0x428>
 424:	2e747365 	cdpcs	3, 7, cr7, cr4, cr5, {3}
 428:	65740063 	ldrbvs	r0, [r4, #-99]!	; 0xffffff9d
 42c:	00327473 	eorseq	r7, r2, r3, ror r4
 430:	74736574 	ldrbtvc	r6, [r3], #-1396	; 0xfffffa8c
 434:	2f2e0031 	svccs	0x002e0031
 438:	45435845 	strbmi	r5, [r3, #-2117]	; 0xfffff7bb
 43c:	4f495450 	svcmi	0x00495450
 440:	72742f4e 	rsbsvc	r2, r4, #312	; 0x138
 444:	632e7061 			; <UNDEFINED> instruction: 0x632e7061
	...

Disassembly of section .debug_frame:

00000000 <.debug_frame>:
   0:	0000000c 	andeq	r0, r0, ip
   4:	ffffffff 			; <UNDEFINED> instruction: 0xffffffff
   8:	7c020001 	stcvc	0, cr0, [r2], {1}
   c:	000d0c0e 	andeq	r0, sp, lr, lsl #24
  10:	00000024 	andeq	r0, r0, r4, lsr #32
  14:	00000000 	andeq	r0, r0, r0
  18:	80100070 	andshi	r0, r0, r0, ror r0
  1c:	00000030 	andeq	r0, r0, r0, lsr r0
  20:	87040e41 	strhi	r0, [r4, -r1, asr #28]
  24:	180e4101 	stmdane	lr, {r0, r8, lr}
  28:	51070d41 	tstpl	r7, r1, asr #26
  2c:	0d41040e 	cfstrdeq	mvd0, [r1, #-56]	; 0xffffffc8
  30:	0ec7420d 	cdpeq	2, 12, cr4, cr7, cr13, {0}
  34:	00000000 	andeq	r0, r0, r0
  38:	00000024 	andeq	r0, r0, r4, lsr #32
  3c:	00000000 	andeq	r0, r0, r0
  40:	801000a0 	andshi	r0, r0, r0, lsr #1
  44:	00000020 	andeq	r0, r0, r0, lsr #32
  48:	87040e41 	strhi	r0, [r4, -r1, asr #28]
  4c:	100e4101 	andne	r4, lr, r1, lsl #2
  50:	49070d41 	stmdbmi	r7, {r0, r6, r8, sl, fp}
  54:	0d41040e 	cfstrdeq	mvd0, [r1, #-56]	; 0xffffffc8
  58:	0ec7420d 	cdpeq	2, 12, cr4, cr7, cr13, {0}
  5c:	00000000 	andeq	r0, r0, r0
  60:	00000018 	andeq	r0, r0, r8, lsl r0
  64:	00000000 	andeq	r0, r0, r0
  68:	801000c0 	andshi	r0, r0, r0, asr #1
  6c:	00000022 	andeq	r0, r0, r2, lsr #32
  70:	87080e41 	strhi	r0, [r8, -r1, asr #28]
  74:	41018e02 	tstmi	r1, r2, lsl #28
  78:	0000070d 	andeq	r0, r0, sp, lsl #14
  7c:	00000020 	andeq	r0, r0, r0, lsr #32
  80:	00000000 	andeq	r0, r0, r0
  84:	801000e2 	andshi	r0, r0, r2, ror #1
  88:	0000004a 	andeq	r0, r0, sl, asr #32
  8c:	87080e41 	strhi	r0, [r8, -r1, asr #28]
  90:	41018e02 	tstmi	r1, r2, lsl #28
  94:	0d41100e 	stcleq	0, cr1, [r1, #-56]	; 0xffffffc8
  98:	080e6007 	stmdaeq	lr, {r0, r1, r2, sp, lr}
  9c:	000d0d41 	andeq	r0, sp, r1, asr #26
  a0:	00000024 	andeq	r0, r0, r4, lsr #32
  a4:	00000000 	andeq	r0, r0, r0
  a8:	8010012c 	andshi	r0, r0, ip, lsr #2
  ac:	00000034 	andeq	r0, r0, r4, lsr r0
  b0:	87040e41 	strhi	r0, [r4, -r1, asr #28]
  b4:	200e4101 	andcs	r4, lr, r1, lsl #2
  b8:	53070d41 	movwpl	r0, #32065	; 0x7d41
  bc:	0d41040e 	cfstrdeq	mvd0, [r1, #-56]	; 0xffffffc8
  c0:	0ec7420d 	cdpeq	2, 12, cr4, cr7, cr13, {0}
  c4:	00000000 	andeq	r0, r0, r0
  c8:	0000000c 	andeq	r0, r0, ip
  cc:	ffffffff 			; <UNDEFINED> instruction: 0xffffffff
  d0:	7c020001 	stcvc	0, cr0, [r2], {1}
  d4:	000d0c0e 	andeq	r0, sp, lr, lsl #24
  d8:	00000020 	andeq	r0, r0, r0, lsr #32
  dc:	000000c8 	andeq	r0, r0, r8, asr #1
  e0:	80100160 	andshi	r0, r0, r0, ror #2
  e4:	00000018 	andeq	r0, r0, r8, lsl r0
  e8:	87080e41 	strhi	r0, [r8, -r1, asr #28]
  ec:	41018e02 	tstmi	r1, r2, lsl #28
  f0:	0d41100e 	stcleq	0, cr1, [r1, #-56]	; 0xffffffc8
  f4:	080e4707 	stmdaeq	lr, {r0, r1, r2, r8, r9, sl, lr}
  f8:	000d0d41 	andeq	r0, sp, r1, asr #26
  fc:	00000020 	andeq	r0, r0, r0, lsr #32
 100:	000000c8 	andeq	r0, r0, r8, asr #1
 104:	80100178 	andshi	r0, r0, r8, ror r1
 108:	0000002a 	andeq	r0, r0, sl, lsr #32
 10c:	87080e41 	strhi	r0, [r8, -r1, asr #28]
 110:	41018e02 	tstmi	r1, r2, lsl #28
 114:	0d41100e 	stcleq	0, cr1, [r1, #-56]	; 0xffffffc8
 118:	080e5007 	stmdaeq	lr, {r0, r1, r2, ip, lr}
 11c:	000d0d41 	andeq	r0, sp, r1, asr #26
 120:	00000020 	andeq	r0, r0, r0, lsr #32
 124:	000000c8 	andeq	r0, r0, r8, asr #1
 128:	801001a2 	andshi	r0, r0, r2, lsr #3
 12c:	000000d2 	ldrdeq	r0, [r0], -r2
 130:	87080e41 	strhi	r0, [r8, -r1, asr #28]
 134:	41018e02 	tstmi	r1, r2, lsl #28
 138:	0d41680e 	stcleq	8, cr6, [r1, #-56]	; 0xffffffc8
 13c:	0e640207 	cdpeq	2, 6, cr0, cr4, cr7, {0}
 140:	0d0d4108 	stfeqs	f4, [sp, #-32]	; 0xffffffe0
 144:	00000020 	andeq	r0, r0, r0, lsr #32
 148:	000000c8 	andeq	r0, r0, r8, asr #1
 14c:	80100274 	andshi	r0, r0, r4, ror r2
 150:	00000194 	muleq	r0, r4, r1
 154:	87080e41 	strhi	r0, [r8, -r1, asr #28]
 158:	41018e02 	tstmi	r1, r2, lsl #28
 15c:	0d41180e 	stcleq	8, cr1, [r1, #-56]	; 0xffffffc8
 160:	0ec50207 	cdpeq	2, 12, cr0, cr5, cr7, {0}
 164:	0d0d4108 	stfeqs	f4, [sp, #-32]	; 0xffffffe0
 168:	00000038 	andeq	r0, r0, r8, lsr r0
 16c:	000000c8 	andeq	r0, r0, r8, asr #1
 170:	80100408 	andshi	r0, r0, r8, lsl #8
 174:	0000002c 	andeq	r0, r0, ip, lsr #32
 178:	80100e41 	andshi	r0, r0, r1, asr #28
 17c:	82038104 	andhi	r8, r3, #4, 2
 180:	41018302 	tstmi	r1, r2, lsl #6
 184:	0687180e 	streq	r1, [r7], lr, lsl #16
 188:	0e41058e 	cdpeq	5, 4, cr0, cr1, cr14, {4}
 18c:	070d4120 	streq	r4, [sp, -r0, lsr #2]
 190:	41180e4d 	tstmi	r8, sp, asr #28
 194:	ce420d0d 	cdpgt	13, 4, cr0, cr2, cr13, {0}
 198:	41100ec7 	tstmi	r0, r7, asr #29
 19c:	c0c1c2c3 	sbcgt	ip, r1, r3, asr #5
 1a0:	0000000e 	andeq	r0, r0, lr
 1a4:	00000018 	andeq	r0, r0, r8, lsl r0
 1a8:	000000c8 	andeq	r0, r0, r8, asr #1
 1ac:	80100434 	andshi	r0, r0, r4, lsr r4
 1b0:	000000f6 	strdeq	r0, [r0], -r6
 1b4:	87080e41 	strhi	r0, [r8, -r1, asr #28]
 1b8:	41018e02 	tstmi	r1, r2, lsl #28
 1bc:	0000070d 	andeq	r0, r0, sp, lsl #14
 1c0:	0000000c 	andeq	r0, r0, ip
 1c4:	ffffffff 			; <UNDEFINED> instruction: 0xffffffff
 1c8:	7c020001 	stcvc	0, cr0, [r2], {1}
 1cc:	000d0c0e 	andeq	r0, sp, lr, lsl #24
 1d0:	00000024 	andeq	r0, r0, r4, lsr #32
 1d4:	000001c0 	andeq	r0, r0, r0, asr #3
 1d8:	8010052c 	andshi	r0, r0, ip, lsr #10
 1dc:	00000032 	andeq	r0, r0, r2, lsr r0
 1e0:	87040e41 	strhi	r0, [r4, -r1, asr #28]
 1e4:	100e4101 	andne	r4, lr, r1, lsl #2
 1e8:	52070d41 	andpl	r0, r7, #4160	; 0x1040
 1ec:	0d41040e 	cfstrdeq	mvd0, [r1, #-56]	; 0xffffffc8
 1f0:	0ec7420d 	cdpeq	2, 12, cr4, cr7, cr13, {0}
 1f4:	00000000 	andeq	r0, r0, r0
 1f8:	00000020 	andeq	r0, r0, r0, lsr #32
 1fc:	000001c0 	andeq	r0, r0, r0, asr #3
 200:	8010055e 	andshi	r0, r0, lr, asr r5
 204:	00000102 	andeq	r0, r0, r2, lsl #2
 208:	87080e41 	strhi	r0, [r8, -r1, asr #28]
 20c:	41018e02 	tstmi	r1, r2, lsl #28
 210:	0d41200e 	stcleq	0, cr2, [r1, #-56]	; 0xffffffc8
 214:	0e7c0207 	cdpeq	2, 7, cr0, cr12, cr7, {0}
 218:	0d0d4108 	stfeqs	f4, [sp, #-32]	; 0xffffffe0
 21c:	00000020 	andeq	r0, r0, r0, lsr #32
 220:	000001c0 	andeq	r0, r0, r0, asr #3
 224:	80100660 	andshi	r0, r0, r0, ror #12
 228:	0000003c 	andeq	r0, r0, ip, lsr r0
 22c:	87080e41 	strhi	r0, [r8, -r1, asr #28]
 230:	41018e02 	tstmi	r1, r2, lsl #28
 234:	0d41180e 	stcleq	8, cr1, [r1, #-56]	; 0xffffffc8
 238:	080e5907 	stmdaeq	lr, {r0, r1, r2, r8, fp, ip, lr}
 23c:	000d0d41 	andeq	r0, sp, r1, asr #26
 240:	00000020 	andeq	r0, r0, r0, lsr #32
 244:	000001c0 	andeq	r0, r0, r0, asr #3
 248:	8010069c 	mulshi	r0, ip, r6
 24c:	0000006a 	andeq	r0, r0, sl, rrx
 250:	87080e41 	strhi	r0, [r8, -r1, asr #28]
 254:	41018e02 	tstmi	r1, r2, lsl #28
 258:	0d41180e 	stcleq	8, cr1, [r1, #-56]	; 0xffffffc8
 25c:	080e7007 	stmdaeq	lr, {r0, r1, r2, ip, sp, lr}
 260:	000d0d41 	andeq	r0, sp, r1, asr #26
 264:	00000020 	andeq	r0, r0, r0, lsr #32
 268:	000001c0 	andeq	r0, r0, r0, asr #3
 26c:	80100706 	andshi	r0, r0, r6, lsl #14
 270:	00000024 	andeq	r0, r0, r4, lsr #32
 274:	87080e41 	strhi	r0, [r8, -r1, asr #28]
 278:	41018e02 	tstmi	r1, r2, lsl #28
 27c:	0d41700e 	stcleq	0, cr7, [r1, #-56]	; 0xffffffc8
 280:	080e4d07 	stmdaeq	lr, {r0, r1, r2, r8, sl, fp, lr}
 284:	000d0d41 	andeq	r0, sp, r1, asr #26
 288:	00000020 	andeq	r0, r0, r0, lsr #32
 28c:	000001c0 	andeq	r0, r0, r0, asr #3
 290:	8010072a 	andshi	r0, r0, sl, lsr #14
 294:	00000024 	andeq	r0, r0, r4, lsr #32
 298:	87080e41 	strhi	r0, [r8, -r1, asr #28]
 29c:	41018e02 	tstmi	r1, r2, lsl #28
 2a0:	0d41700e 	stcleq	0, cr7, [r1, #-56]	; 0xffffffc8
 2a4:	080e4d07 	stmdaeq	lr, {r0, r1, r2, r8, sl, fp, lr}
 2a8:	000d0d41 	andeq	r0, sp, r1, asr #26
 2ac:	0000000c 	andeq	r0, r0, ip
 2b0:	ffffffff 			; <UNDEFINED> instruction: 0xffffffff
 2b4:	7c020001 	stcvc	0, cr0, [r2], {1}
 2b8:	000d0c0e 	andeq	r0, sp, lr, lsl #24
 2bc:	0000001c 	andeq	r0, r0, ip, lsl r0
 2c0:	000002ac 	andeq	r0, r0, ip, lsr #5
 2c4:	8010074e 	andshi	r0, r0, lr, asr #14
 2c8:	000000f6 	strdeq	r0, [r0], -r6
 2cc:	87040e41 	strhi	r0, [r4, -r1, asr #28]
 2d0:	070d4101 	streq	r4, [sp, -r1, lsl #2]
 2d4:	0d0d7602 	stceq	6, cr7, [sp, #-8]
 2d8:	000ec742 	andeq	ip, lr, r2, asr #14
 2dc:	00000024 	andeq	r0, r0, r4, lsr #32
 2e0:	000002ac 	andeq	r0, r0, ip, lsr #5
 2e4:	80100844 	andshi	r0, r0, r4, asr #16
 2e8:	00000034 	andeq	r0, r0, r4, lsr r0
 2ec:	87040e41 	strhi	r0, [r4, -r1, asr #28]
 2f0:	100e4101 	andne	r4, lr, r1, lsl #2
 2f4:	53070d41 	movwpl	r0, #32065	; 0x7d41
 2f8:	0d41040e 	cfstrdeq	mvd0, [r1, #-56]	; 0xffffffc8
 2fc:	0ec7420d 	cdpeq	2, 12, cr4, cr7, cr13, {0}
 300:	00000000 	andeq	r0, r0, r0
 304:	0000001c 	andeq	r0, r0, ip, lsl r0
 308:	000002ac 	andeq	r0, r0, ip, lsr #5
 30c:	80100878 	andshi	r0, r0, r8, ror r8
 310:	0000002c 	andeq	r0, r0, ip, lsr #32
 314:	87040e41 	strhi	r0, [r4, -r1, asr #28]
 318:	070d4101 	streq	r4, [sp, -r1, lsl #2]
 31c:	420d0d51 	andmi	r0, sp, #5184	; 0x1440
 320:	00000ec7 	andeq	r0, r0, r7, asr #29
 324:	00000020 	andeq	r0, r0, r0, lsr #32
 328:	000002ac 	andeq	r0, r0, ip, lsr #5
 32c:	801008a4 	andshi	r0, r0, r4, lsr #17
 330:	0000002a 	andeq	r0, r0, sl, lsr #32
 334:	87080e41 	strhi	r0, [r8, -r1, asr #28]
 338:	41018e02 	tstmi	r1, r2, lsl #28
 33c:	0d41100e 	stcleq	0, cr1, [r1, #-56]	; 0xffffffc8
 340:	080e5007 	stmdaeq	lr, {r0, r1, r2, ip, lr}
 344:	000d0d41 	andeq	r0, sp, r1, asr #26
 348:	00000024 	andeq	r0, r0, r4, lsr #32
 34c:	000002ac 	andeq	r0, r0, ip, lsr #5
 350:	801008ce 	andshi	r0, r0, lr, asr #17
 354:	00000016 	andeq	r0, r0, r6, lsl r0
 358:	87040e41 	strhi	r0, [r4, -r1, asr #28]
 35c:	100e4101 	andne	r4, lr, r1, lsl #2
 360:	44070d41 	strmi	r0, [r7], #-3393	; 0xfffff2bf
 364:	0d41040e 	cfstrdeq	mvd0, [r1, #-56]	; 0xffffffc8
 368:	0ec7420d 	cdpeq	2, 12, cr4, cr7, cr13, {0}
 36c:	00000000 	andeq	r0, r0, r0
 370:	0000000c 	andeq	r0, r0, ip
 374:	ffffffff 			; <UNDEFINED> instruction: 0xffffffff
 378:	7c020001 	stcvc	0, cr0, [r2], {1}
 37c:	000d0c0e 	andeq	r0, sp, lr, lsl #24
 380:	00000020 	andeq	r0, r0, r0, lsr #32
 384:	00000370 	andeq	r0, r0, r0, ror r3
 388:	801008e4 	andshi	r0, r0, r4, ror #17
 38c:	00000032 	andeq	r0, r0, r2, lsr r0
 390:	87080e41 	strhi	r0, [r8, -r1, asr #28]
 394:	41018e02 	tstmi	r1, r2, lsl #28
 398:	0d41100e 	stcleq	0, cr1, [r1, #-56]	; 0xffffffc8
 39c:	080e5407 	stmdaeq	lr, {r0, r1, r2, sl, ip, lr}
 3a0:	000d0d41 	andeq	r0, sp, r1, asr #26
 3a4:	00000020 	andeq	r0, r0, r0, lsr #32
 3a8:	00000370 	andeq	r0, r0, r0, ror r3
 3ac:	80100916 	andshi	r0, r0, r6, lsl r9
 3b0:	0000001a 	andeq	r0, r0, sl, lsl r0
 3b4:	87080e41 	strhi	r0, [r8, -r1, asr #28]
 3b8:	41018e02 	tstmi	r1, r2, lsl #28
 3bc:	0d41100e 	stcleq	0, cr1, [r1, #-56]	; 0xffffffc8
 3c0:	080e4807 	stmdaeq	lr, {r0, r1, r2, fp, lr}
 3c4:	000d0d41 	andeq	r0, sp, r1, asr #26
 3c8:	00000024 	andeq	r0, r0, r4, lsr #32
 3cc:	00000370 	andeq	r0, r0, r0, ror r3
 3d0:	80100930 	andshi	r0, r0, r0, lsr r9
 3d4:	00000048 	andeq	r0, r0, r8, asr #32
 3d8:	87040e41 	strhi	r0, [r4, -r1, asr #28]
 3dc:	180e4101 	stmdane	lr, {r0, r8, lr}
 3e0:	5d070d41 	stcpl	13, cr0, [r7, #-260]	; 0xfffffefc
 3e4:	0d41040e 	cfstrdeq	mvd0, [r1, #-56]	; 0xffffffc8
 3e8:	0ec7420d 	cdpeq	2, 12, cr4, cr7, cr13, {0}
 3ec:	00000000 	andeq	r0, r0, r0
 3f0:	00000024 	andeq	r0, r0, r4, lsr #32
 3f4:	00000370 	andeq	r0, r0, r0, ror r3
 3f8:	80100978 	andshi	r0, r0, r8, ror r9
 3fc:	00000042 	andeq	r0, r0, r2, asr #32
 400:	87040e41 	strhi	r0, [r4, -r1, asr #28]
 404:	100e4101 	andne	r4, lr, r1, lsl #2
 408:	5a070d41 	bpl	1c3914 <shift+0x1c3914>
 40c:	0d41040e 	cfstrdeq	mvd0, [r1, #-56]	; 0xffffffc8
 410:	0ec7420d 	cdpeq	2, 12, cr4, cr7, cr13, {0}
 414:	00000000 	andeq	r0, r0, r0
 418:	00000020 	andeq	r0, r0, r0, lsr #32
 41c:	00000370 	andeq	r0, r0, r0, ror r3
 420:	801009ba 			; <UNDEFINED> instruction: 0x801009ba
 424:	0000003e 	andeq	r0, r0, lr, lsr r0
 428:	87080e41 	strhi	r0, [r8, -r1, asr #28]
 42c:	41018e02 	tstmi	r1, r2, lsl #28
 430:	0d41180e 	stcleq	8, cr1, [r1, #-56]	; 0xffffffc8
 434:	080e5a07 	stmdaeq	lr, {r0, r1, r2, r9, fp, ip, lr}
 438:	000d0d41 	andeq	r0, sp, r1, asr #26
 43c:	0000000c 	andeq	r0, r0, ip
 440:	ffffffff 			; <UNDEFINED> instruction: 0xffffffff
 444:	7c020001 	stcvc	0, cr0, [r2], {1}
 448:	000d0c0e 	andeq	r0, sp, lr, lsl #24
 44c:	00000024 	andeq	r0, r0, r4, lsr #32
 450:	0000043c 	andeq	r0, r0, ip, lsr r4
 454:	801009f8 			; <UNDEFINED> instruction: 0x801009f8
 458:	00000030 	andeq	r0, r0, r0, lsr r0
 45c:	87040e41 	strhi	r0, [r4, -r1, asr #28]
 460:	180e4101 	stmdane	lr, {r0, r8, lr}
 464:	51070d41 	tstpl	r7, r1, asr #26
 468:	0d41040e 	cfstrdeq	mvd0, [r1, #-56]	; 0xffffffc8
 46c:	0ec7420d 	cdpeq	2, 12, cr4, cr7, cr13, {0}
 470:	00000000 	andeq	r0, r0, r0
 474:	00000024 	andeq	r0, r0, r4, lsr #32
 478:	0000043c 	andeq	r0, r0, ip, lsr r4
 47c:	80100a28 	andshi	r0, r0, r8, lsr #20
 480:	00000020 	andeq	r0, r0, r0, lsr #32
 484:	87040e41 	strhi	r0, [r4, -r1, asr #28]
 488:	100e4101 	andne	r4, lr, r1, lsl #2
 48c:	49070d41 	stmdbmi	r7, {r0, r6, r8, sl, fp}
 490:	0d41040e 	cfstrdeq	mvd0, [r1, #-56]	; 0xffffffc8
 494:	0ec7420d 	cdpeq	2, 12, cr4, cr7, cr13, {0}
 498:	00000000 	andeq	r0, r0, r0
 49c:	00000020 	andeq	r0, r0, r0, lsr #32
 4a0:	0000043c 	andeq	r0, r0, ip, lsr r4
 4a4:	80100a48 	andshi	r0, r0, r8, asr #20
 4a8:	000000e2 	andeq	r0, r0, r2, ror #1
 4ac:	87080e41 	strhi	r0, [r8, -r1, asr #28]
 4b0:	41018e02 	tstmi	r1, r2, lsl #28
 4b4:	0d41200e 	stcleq	0, cr2, [r1, #-56]	; 0xffffffc8
 4b8:	0e6c0207 	cdpeq	2, 6, cr0, cr12, cr7, {0}
 4bc:	0d0d4108 	stfeqs	f4, [sp, #-32]	; 0xffffffe0
 4c0:	00000020 	andeq	r0, r0, r0, lsr #32
 4c4:	0000043c 	andeq	r0, r0, ip, lsr r4
 4c8:	80100b2a 	andshi	r0, r0, sl, lsr #22
 4cc:	00000074 	andeq	r0, r0, r4, ror r0
 4d0:	87080e41 	strhi	r0, [r8, -r1, asr #28]
 4d4:	41018e02 	tstmi	r1, r2, lsl #28
 4d8:	0d41280e 	stcleq	8, cr2, [r1, #-56]	; 0xffffffc8
 4dc:	080e7507 	stmdaeq	lr, {r0, r1, r2, r8, sl, ip, sp, lr}
 4e0:	000d0d41 	andeq	r0, sp, r1, asr #26
 4e4:	00000018 	andeq	r0, r0, r8, lsl r0
 4e8:	0000043c 	andeq	r0, r0, ip, lsr r4
 4ec:	80100b9e 	mulshi	r0, lr, fp
 4f0:	00000028 	andeq	r0, r0, r8, lsr #32
 4f4:	87080e41 	strhi	r0, [r8, -r1, asr #28]
 4f8:	41018e02 	tstmi	r1, r2, lsl #28
 4fc:	0000070d 	andeq	r0, r0, sp, lsl #14
 500:	00000018 	andeq	r0, r0, r8, lsl r0
 504:	0000043c 	andeq	r0, r0, ip, lsr r4
 508:	80100bc6 	andshi	r0, r0, r6, asr #23
 50c:	00000018 	andeq	r0, r0, r8, lsl r0
 510:	87080e41 	strhi	r0, [r8, -r1, asr #28]
 514:	41018e02 	tstmi	r1, r2, lsl #28
 518:	0000070d 	andeq	r0, r0, sp, lsl #14
 51c:	00000024 	andeq	r0, r0, r4, lsr #32
 520:	0000043c 	andeq	r0, r0, ip, lsr r4
 524:	80100bde 			; <UNDEFINED> instruction: 0x80100bde
 528:	00000096 	muleq	r0, r6, r0
 52c:	87080e41 	strhi	r0, [r8, -r1, asr #28]
 530:	41018e02 	tstmi	r1, r2, lsl #28
 534:	0c41200e 	mcrreq	0, 0, r2, r1, cr14
 538:	43021807 	movwmi	r1, #10247	; 0x2807
 53c:	0d41080e 	stcleq	8, cr0, [r1, #-56]	; 0xffffffc8
 540:	0000000d 	andeq	r0, r0, sp
 544:	0000000c 	andeq	r0, r0, ip
 548:	ffffffff 			; <UNDEFINED> instruction: 0xffffffff
 54c:	7c020001 	stcvc	0, cr0, [r2], {1}
 550:	000d0c0e 	andeq	r0, sp, lr, lsl #24
 554:	00000024 	andeq	r0, r0, r4, lsr #32
 558:	00000544 	andeq	r0, r0, r4, asr #10
 55c:	80100c74 	andshi	r0, r0, r4, ror ip
 560:	0000003e 	andeq	r0, r0, lr, lsr r0
 564:	87040e41 	strhi	r0, [r4, -r1, asr #28]
 568:	200e4101 	andcs	r4, lr, r1, lsl #2
 56c:	58070d41 	stmdapl	r7, {r0, r6, r8, sl, fp}
 570:	0d41040e 	cfstrdeq	mvd0, [r1, #-56]	; 0xffffffc8
 574:	0ec7420d 	cdpeq	2, 12, cr4, cr7, cr13, {0}
 578:	00000000 	andeq	r0, r0, r0
 57c:	0000000c 	andeq	r0, r0, ip
 580:	ffffffff 			; <UNDEFINED> instruction: 0xffffffff
 584:	7c020001 	stcvc	0, cr0, [r2], {1}
 588:	000d0c0e 	andeq	r0, sp, lr, lsl #24
 58c:	00000018 	andeq	r0, r0, r8, lsl r0
 590:	0000057c 	andeq	r0, r0, ip, ror r5
 594:	80100cb2 			; <UNDEFINED> instruction: 0x80100cb2
 598:	00000014 	andeq	r0, r0, r4, lsl r0
 59c:	87080e41 	strhi	r0, [r8, -r1, asr #28]
 5a0:	41018e02 	tstmi	r1, r2, lsl #28
 5a4:	0000070d 	andeq	r0, r0, sp, lsl #14
 5a8:	00000018 	andeq	r0, r0, r8, lsl r0
 5ac:	0000057c 	andeq	r0, r0, ip, ror r5
 5b0:	80100cc6 	andshi	r0, r0, r6, asr #25
 5b4:	00000014 	andeq	r0, r0, r4, lsl r0
 5b8:	87080e41 	strhi	r0, [r8, -r1, asr #28]
 5bc:	41018e02 	tstmi	r1, r2, lsl #28
 5c0:	0000070d 	andeq	r0, r0, sp, lsl #14
 5c4:	0000000c 	andeq	r0, r0, ip
 5c8:	ffffffff 			; <UNDEFINED> instruction: 0xffffffff
 5cc:	7c020001 	stcvc	0, cr0, [r2], {1}
 5d0:	000d0c0e 	andeq	r0, sp, lr, lsl #24
 5d4:	00000020 	andeq	r0, r0, r0, lsr #32
 5d8:	000005c4 	andeq	r0, r0, r4, asr #11
 5dc:	80100cda 			; <UNDEFINED> instruction: 0x80100cda
 5e0:	00000024 	andeq	r0, r0, r4, lsr #32
 5e4:	87080e41 	strhi	r0, [r8, -r1, asr #28]
 5e8:	41018e02 	tstmi	r1, r2, lsl #28
 5ec:	0d41100e 	stcleq	0, cr1, [r1, #-56]	; 0xffffffc8
 5f0:	080e4d07 	stmdaeq	lr, {r0, r1, r2, r8, sl, fp, lr}
 5f4:	000d0d41 	andeq	r0, sp, r1, asr #26
 5f8:	0000000c 	andeq	r0, r0, ip
 5fc:	ffffffff 			; <UNDEFINED> instruction: 0xffffffff
 600:	7c010001 	stcvc	0, cr0, [r1], {1}
 604:	000d0c0e 	andeq	r0, sp, lr, lsl #24
 608:	0000000c 	andeq	r0, r0, ip
 60c:	000005f8 	strdeq	r0, [r0], -r8
 610:	80100d29 	andshi	r0, r0, r9, lsr #26
 614:	0000025c 	andeq	r0, r0, ip, asr r2
 618:	0000000c 	andeq	r0, r0, ip
 61c:	ffffffff 			; <UNDEFINED> instruction: 0xffffffff
 620:	7c010001 	stcvc	0, cr0, [r1], {1}
 624:	000d0c0e 	andeq	r0, sp, lr, lsl #24
 628:	00000014 	andeq	r0, r0, r4, lsl r0
 62c:	00000618 	andeq	r0, r0, r8, lsl r6
 630:	80100fa1 	andshi	r0, r0, r1, lsr #31
 634:	0000000c 	andeq	r0, r0, ip
 638:	0e018e42 	cdpeq	14, 0, cr8, cr1, cr2, {2}
 63c:	00000008 	andeq	r0, r0, r8
